Certificate:
    Data:
        Version: 3 (0x2)
        Serial Number: 56440 (0xdc78)
        Signature Algorithm: sha256WithRSAEncryption
        Issuer: CN=web-platform-tests
        Validity
            Not Before: Dec 12 01:12:54 2024 GMT
            Not After : Dec 12 01:12:54 2025 GMT
        Subject: CN=web-platform.test
        Subject Public Key Info:
            Public Key Algorithm: rsaEncryption
                RSA Public-Key: (2048 bit)
                Modulus:
                    00:a9:be:0d:60:d5:4d:7c:45:c6:ca:e5:dd:30:1f:
                    64:f6:05:bf:4d:6d:45:cd:25:e2:c7:99:24:75:4d:
                    83:5b:ef:66:ac:ea:9b:fd:7b:e8:6f:d1:d2:0a:10:
                    b5:a9:26:63:64:12:9a:29:97:3d:eb:2b:ea:0e:dc:
                    9c:d4:ce:d0:fa:f4:87:41:ea:b2:9a:c7:d1:f8:38:
                    98:77:22:71:c9:f4:72:b3:70:ba:ec:d0:1e:e0:fd:
                    07:9a:5c:84:64:62:f4:84:07:74:b1:cb:4f:47:d3:
                    1d:b1:39:d6:e5:34:ac:97:3f:48:0f:8d:35:75:3d:
                    8d:88:b6:f7:7f:fc:d5:86:a1:d1:81:3b:bc:f5:2e:
                    86:9d:73:43:6b:cc:6a:0e:10:4c:d2:53:d2:f2:7b:
                    89:32:b2:c6:fd:2a:f3:1d:ee:b4:35:00:b3:b0:e1:
                    82:ae:59:78:ec:93:ad:23:0c:39:28:ff:ee:4a:e2:
                    80:97:80:92:7b:c4:ee:68:54:91:77:d4:da:d7:c4:
                    45:3f:e5:0c:85:31:85:99:c9:80:f8:fd:50:44:06:
                    0b:01:2d:89:25:8f:6f:11:85:a6:75:cf:73:59:b8:
                    1d:73:39:eb:f7:47:59:34:51:fa:04:4c:2e:5c:58:
                    ff:4c:c4:26:52:8f:d0:e5:8a:d9:9c:25:39:75:e6:
                    ef:ef
                Exponent: 65537 (0x10001)
        X509v3 extensions:
            X509v3 Basic Constraints: 
                CA:FALSE
            X509v3 Subject Key Identifier: 
                EE:2B:5A:7F:7E:3F:56:1E:CA:38:8D:3D:A3:32:FD:41:37:6B:A0:39
            X509v3 Authority Key Identifier: 
                keyid:47:F4:6C:9C:26:64:AA:95:E6:AF:9B:58:FD:55:A7:71:82:1C:4D:BD

            X509v3 Key Usage: 
                Digital Signature, Non Repudiation, Key Encipherment
            X509v3 Extended Key Usage: 
                TLS Web Server Authentication
            X509v3 Subject Alternative Name: 
                DNS:web-platform.test, DNS:not-web-platform.test, DNS:www.web-platform.test, DNS:www1.web-platform.test, DNS:www2.web-platform.test, DNS:www.www.web-platform.test, DNS:www.not-web-platform.test, DNS:www2.not-web-platform.test, DNS:www2.www.web-platform.test, DNS:www.www2.web-platform.test, DNS:www1.not-web-platform.test, DNS:www.www1.web-platform.test, DNS:www1.www.web-platform.test, DNS:www2.www2.web-platform.test, DNS:www2.www1.web-platform.test, DNS:www1.www1.web-platform.test, DNS:www1.www2.web-platform.test, DNS:www.www.not-web-platform.test, DNS:xn--lve-6lad.web-platform.test, DNS:www1.www.not-web-platform.test, DNS:www2.www.not-web-platform.test, DNS:www.www2.not-web-platform.test, DNS:www.www1.not-web-platform.test, DNS:www2.www2.not-web-platform.test, DNS:www1.www1.not-web-platform.test, DNS:www2.www1.not-web-platform.test, DNS:www1.www2.not-web-platform.test, DNS:xn--lve-6lad.www.web-platform.test, DNS:xn--lve-6lad.not-web-platform.test, DNS:www.xn--lve-6lad.web-platform.test, DNS:xn--lve-6lad.www2.web-platform.test, DNS:www1.xn--lve-6lad.web-platform.test, DNS:www2.xn--lve-6lad.web-platform.test, DNS:xn--lve-6lad.www1.web-platform.test, DNS:xn--lve-6lad.www.not-web-platform.test, DNS:www.xn--lve-6lad.not-web-platform.test, DNS:www1.xn--lve-6lad.not-web-platform.test, DNS:xn--lve-6lad.www2.not-web-platform.test, DNS:www2.xn--lve-6lad.not-web-platform.test, DNS:xn--lve-6lad.www1.not-web-platform.test, DNS:xn--n8j6ds53lwwkrqhv28a.web-platform.test, DNS:xn--lve-6lad.xn--lve-6lad.web-platform.test, DNS:www.xn--n8j6ds53lwwkrqhv28a.web-platform.test, DNS:xn--n8j6ds53lwwkrqhv28a.www.web-platform.test, DNS:xn--n8j6ds53lwwkrqhv28a.not-web-platform.test, DNS:www2.xn--n8j6ds53lwwkrqhv28a.web-platform.test, DNS:www1.xn--n8j6ds53lwwkrqhv28a.web-platform.test, DNS:xn--n8j6ds53lwwkrqhv28a.www2.web-platform.test, DNS:xn--n8j6ds53lwwkrqhv28a.www1.web-platform.test, DNS:xn--lve-6lad.xn--lve-6lad.not-web-platform.test, DNS:www.xn--n8j6ds53lwwkrqhv28a.not-web-platform.test, DNS:xn--n8j6ds53lwwkrqhv28a.www.not-web-platform.test, DNS:xn--n8j6ds53lwwkrqhv28a.www1.not-web-platform.test, DNS:www2.xn--n8j6ds53lwwkrqhv28a.not-web-platform.test, DNS:www1.xn--n8j6ds53lwwkrqhv28a.not-web-platform.test, DNS:xn--n8j6ds53lwwkrqhv28a.www2.not-web-platform.test, DNS:xn--lve-6lad.xn--n8j6ds53lwwkrqhv28a.web-platform.test, DNS:xn--n8j6ds53lwwkrqhv28a.xn--lve-6lad.web-platform.test, DNS:xn--n8j6ds53lwwkrqhv28a.xn--lve-6lad.not-web-platform.test, DNS:xn--lve-6lad.xn--n8j6ds53lwwkrqhv28a.not-web-platform.test, DNS:xn--n8j6ds53lwwkrqhv28a.xn--n8j6ds53lwwkrqhv28a.web-platform.test, DNS:xn--n8j6ds53lwwkrqhv28a.xn--n8j6ds53lwwkrqhv28a.not-web-platform.test
    Signature Algorithm: sha256WithRSAEncryption
         2b:59:8d:f6:6c:39:1e:99:9f:3f:b5:85:98:d4:59:6e:47:ce:
         d4:94:76:21:fc:3b:58:ef:54:2c:98:5e:3b:1b:b6:f3:ec:43:
         03:12:6a:8c:cd:f2:b4:c0:75:1f:5c:63:28:64:90:8f:9b:0a:
         b0:bd:94:f8:4a:a8:50:60:3d:95:9f:93:fe:70:b6:09:24:fd:
         22:be:32:e5:9d:b3:78:fa:ae:03:5a:1b:cc:bd:16:3b:06:d8:
         18:18:c1:9d:4d:2b:6c:1c:49:bc:c1:52:6c:e2:14:9c:ae:2a:
         0b:51:8b:f8:cf:df:15:c1:45:a7:c5:76:e3:76:b2:a0:30:4f:
         a6:d2:e8:ad:48:ef:7a:f3:ff:fd:4b:18:9b:60:05:56:1c:76:
         33:35:3b:af:eb:8d:fa:72:cc:c6:23:a2:1d:1a:36:e5:d5:28:
         37:74:30:64:66:42:87:00:33:27:82:45:78:c3:3f:78:25:b4:
         fa:06:73:0c:ec:23:8e:ed:cc:3e:3e:0f:22:4d:33:1b:8a:ce:
         b6:c9:fb:c3:4c:34:23:a9:ee:54:27:68:6c:ae:0e:36:b8:36:
         c7:fc:3f:e5:50:af:95:cf:dc:cc:d9:67:f2:0c:be:c7:9f:11:
         ab:e1:0b:f6:05:f5:d8:a1:59:dd:fd:2c:48:14:6c:dd:e1:30:
         d6:2b:22:97
-----BEGIN CERTIFICATE-----
MIIMsjCCC5qgAwIBAgIDANx4MA0GCSqGSIb3DQEBCwUAMB0xGzAZBgNVBAMMEndl
Yi1wbGF0Zm9ybS10ZXN0czAeFw0yNDEyMTIwMTEyNTRaFw0yNTEyMTIwMTEyNTRa
MBwxGjAYBgNVBAMMEXdlYi1wbGF0Zm9ybS50ZXN0MIIBIjANBgkqhkiG9w0BAQEF
AAOCAQ8AMIIBCgKCAQEAqb4NYNVNfEXGyuXdMB9k9gW/TW1FzSXix5kkdU2DW+9m
rOqb/Xvob9HSChC1qSZjZBKaKZc96yvqDtyc1M7Q+vSHQeqymsfR+DiYdyJxyfRy
s3C67NAe4P0HmlyEZGL0hAd0sctPR9MdsTnW5TSslz9ID401dT2NiLb3f/zVhqHR
gTu89S6GnXNDa8xqDhBM0lPS8nuJMrLG/SrzHe60NQCzsOGCrll47JOtIww5KP/u
SuKAl4CSe8TuaFSRd9Ta18RFP+UMhTGFmcmA+P1QRAYLAS2JJY9vEYWmdc9zWbgd
cznr90dZNFH6BEwuXFj/TMQmUo/Q5YrZnCU5debv7wIDAQABo4IJ+jCCCfYwCQYD
VR0TBAIwADAdBgNVHQ4EFgQU7itaf34/Vh7KOI09ozL9QTdroDkwHwYDVR0jBBgw
FoAUR/RsnCZkqpXmr5tY/VWncYIcTb0wCwYDVR0PBAQDAgXgMBMGA1UdJQQMMAoG
CCsGAQUFBwMBMIIJhQYDVR0RBIIJfDCCCXiCEXdlYi1wbGF0Zm9ybS50ZXN0ghVu
b3Qtd2ViLXBsYXRmb3JtLnRlc3SCFXd3dy53ZWItcGxhdGZvcm0udGVzdIIWd3d3
MS53ZWItcGxhdGZvcm0udGVzdIIWd3d3Mi53ZWItcGxhdGZvcm0udGVzdIIZd3d3
Lnd3dy53ZWItcGxhdGZvcm0udGVzdIIZd3d3Lm5vdC13ZWItcGxhdGZvcm0udGVz
dIIad3d3Mi5ub3Qtd2ViLXBsYXRmb3JtLnRlc3SCGnd3dzIud3d3LndlYi1wbGF0
Zm9ybS50ZXN0ghp3d3cud3d3Mi53ZWItcGxhdGZvcm0udGVzdIIad3d3MS5ub3Qt
d2ViLXBsYXRmb3JtLnRlc3SCGnd3dy53d3cxLndlYi1wbGF0Zm9ybS50ZXN0ghp3
d3cxLnd3dy53ZWItcGxhdGZvcm0udGVzdIIbd3d3Mi53d3cyLndlYi1wbGF0Zm9y
bS50ZXN0ght3d3cyLnd3dzEud2ViLXBsYXRmb3JtLnRlc3SCG3d3dzEud3d3MS53
ZWItcGxhdGZvcm0udGVzdIIbd3d3MS53d3cyLndlYi1wbGF0Zm9ybS50ZXN0gh13
d3cud3d3Lm5vdC13ZWItcGxhdGZvcm0udGVzdIIeeG4tLWx2ZS02bGFkLndlYi1w
bGF0Zm9ybS50ZXN0gh53d3cxLnd3dy5ub3Qtd2ViLXBsYXRmb3JtLnRlc3SCHnd3
dzIud3d3Lm5vdC13ZWItcGxhdGZvcm0udGVzdIIed3d3Lnd3dzIubm90LXdlYi1w
bGF0Zm9ybS50ZXN0gh53d3cud3d3MS5ub3Qtd2ViLXBsYXRmb3JtLnRlc3SCH3d3
dzIud3d3Mi5ub3Qtd2ViLXBsYXRmb3JtLnRlc3SCH3d3dzEud3d3MS5ub3Qtd2Vi
LXBsYXRmb3JtLnRlc3SCH3d3dzIud3d3MS5ub3Qtd2ViLXBsYXRmb3JtLnRlc3SC
H3d3dzEud3d3Mi5ub3Qtd2ViLXBsYXRmb3JtLnRlc3SCInhuLS1sdmUtNmxhZC53
d3cud2ViLXBsYXRmb3JtLnRlc3SCInhuLS1sdmUtNmxhZC5ub3Qtd2ViLXBsYXRm
b3JtLnRlc3SCInd3dy54bi0tbHZlLTZsYWQud2ViLXBsYXRmb3JtLnRlc3SCI3hu
LS1sdmUtNmxhZC53d3cyLndlYi1wbGF0Zm9ybS50ZXN0giN3d3cxLnhuLS1sdmUt
NmxhZC53ZWItcGxhdGZvcm0udGVzdIIjd3d3Mi54bi0tbHZlLTZsYWQud2ViLXBs
YXRmb3JtLnRlc3SCI3huLS1sdmUtNmxhZC53d3cxLndlYi1wbGF0Zm9ybS50ZXN0
giZ4bi0tbHZlLTZsYWQud3d3Lm5vdC13ZWItcGxhdGZvcm0udGVzdIImd3d3Lnhu
LS1sdmUtNmxhZC5ub3Qtd2ViLXBsYXRmb3JtLnRlc3SCJ3d3dzEueG4tLWx2ZS02
bGFkLm5vdC13ZWItcGxhdGZvcm0udGVzdIIneG4tLWx2ZS02bGFkLnd3dzIubm90
LXdlYi1wbGF0Zm9ybS50ZXN0gid3d3cyLnhuLS1sdmUtNmxhZC5ub3Qtd2ViLXBs
YXRmb3JtLnRlc3SCJ3huLS1sdmUtNmxhZC53d3cxLm5vdC13ZWItcGxhdGZvcm0u
dGVzdIIpeG4tLW44ajZkczUzbHd3a3JxaHYyOGEud2ViLXBsYXRmb3JtLnRlc3SC
K3huLS1sdmUtNmxhZC54bi0tbHZlLTZsYWQud2ViLXBsYXRmb3JtLnRlc3SCLXd3
dy54bi0tbjhqNmRzNTNsd3drcnFodjI4YS53ZWItcGxhdGZvcm0udGVzdIIteG4t
LW44ajZkczUzbHd3a3JxaHYyOGEud3d3LndlYi1wbGF0Zm9ybS50ZXN0gi14bi0t
bjhqNmRzNTNsd3drcnFodjI4YS5ub3Qtd2ViLXBsYXRmb3JtLnRlc3SCLnd3dzIu
eG4tLW44ajZkczUzbHd3a3JxaHYyOGEud2ViLXBsYXRmb3JtLnRlc3SCLnd3dzEu
eG4tLW44ajZkczUzbHd3a3JxaHYyOGEud2ViLXBsYXRmb3JtLnRlc3SCLnhuLS1u
OGo2ZHM1M2x3d2tycWh2MjhhLnd3dzIud2ViLXBsYXRmb3JtLnRlc3SCLnhuLS1u
OGo2ZHM1M2x3d2tycWh2MjhhLnd3dzEud2ViLXBsYXRmb3JtLnRlc3SCL3huLS1s
dmUtNmxhZC54bi0tbHZlLTZsYWQubm90LXdlYi1wbGF0Zm9ybS50ZXN0gjF3d3cu
eG4tLW44ajZkczUzbHd3a3JxaHYyOGEubm90LXdlYi1wbGF0Zm9ybS50ZXN0gjF4
bi0tbjhqNmRzNTNsd3drcnFodjI4YS53d3cubm90LXdlYi1wbGF0Zm9ybS50ZXN0
gjJ4bi0tbjhqNmRzNTNsd3drcnFodjI4YS53d3cxLm5vdC13ZWItcGxhdGZvcm0u
dGVzdIIyd3d3Mi54bi0tbjhqNmRzNTNsd3drcnFodjI4YS5ub3Qtd2ViLXBsYXRm
b3JtLnRlc3SCMnd3dzEueG4tLW44ajZkczUzbHd3a3JxaHYyOGEubm90LXdlYi1w
bGF0Zm9ybS50ZXN0gjJ4bi0tbjhqNmRzNTNsd3drcnFodjI4YS53d3cyLm5vdC13
ZWItcGxhdGZvcm0udGVzdII2eG4tLWx2ZS02bGFkLnhuLS1uOGo2ZHM1M2x3d2ty
cWh2MjhhLndlYi1wbGF0Zm9ybS50ZXN0gjZ4bi0tbjhqNmRzNTNsd3drcnFodjI4
YS54bi0tbHZlLTZsYWQud2ViLXBsYXRmb3JtLnRlc3SCOnhuLS1uOGo2ZHM1M2x3
d2tycWh2MjhhLnhuLS1sdmUtNmxhZC5ub3Qtd2ViLXBsYXRmb3JtLnRlc3SCOnhu
LS1sdmUtNmxhZC54bi0tbjhqNmRzNTNsd3drcnFodjI4YS5ub3Qtd2ViLXBsYXRm
b3JtLnRlc3SCQXhuLS1uOGo2ZHM1M2x3d2tycWh2MjhhLnhuLS1uOGo2ZHM1M2x3
d2tycWh2MjhhLndlYi1wbGF0Zm9ybS50ZXN0gkV4bi0tbjhqNmRzNTNsd3drcnFo
djI4YS54bi0tbjhqNmRzNTNsd3drcnFodjI4YS5ub3Qtd2ViLXBsYXRmb3JtLnRl
c3QwDQYJKoZIhvcNAQELBQADggEBACtZjfZsOR6Znz+1hZjUWW5HztSUdiH8O1jv
VCyYXjsbtvPsQwMSaozN8rTAdR9cYyhkkI+bCrC9lPhKqFBgPZWfk/5wtgkk/SK+
MuWds3j6rgNaG8y9FjsG2BgYwZ1NK2wcSbzBUmziFJyuKgtRi/jP3xXBRafFduN2
sqAwT6bS6K1I73rz//1LGJtgBVYcdjM1O6/rjfpyzMYjoh0aNuXVKDd0MGRmQocA
MyeCRXjDP3gltPoGcwzsI47tzD4+DyJNMxuKzrbJ+8NMNCOp7lQnaGyuDja4Nsf8
P+VQr5XP3MzZZ/IMvsefEavhC/YF9dihWd39LEgUbN3hMNYrIpc=
-----END CERTIFICATE-----
