Certificate:
    Data:
        Version: 3 (0x2)
        Serial Number: 59411 (0xe813)
        Signature Algorithm: sha256WithRSAEncryption
        Issuer: CN=web-platform-tests
        Validity
            Not Before: Feb 12 10:24:41 2025 GMT
            Not After : Feb 12 10:24:41 2026 GMT
        Subject: CN=web-platform.test
        Subject Public Key Info:
            Public Key Algorithm: rsaEncryption
                Public-Key: (2048 bit)
                Modulus:
                    00:d1:9b:10:c2:77:6a:8f:2e:2f:84:c8:12:31:9e:
                    61:b0:eb:3c:77:dd:1a:a3:fc:64:86:fd:78:d6:b1:
                    7a:1e:40:76:9b:5c:cf:cb:ce:88:02:6d:63:e1:78:
                    d5:54:f0:60:3e:6f:ff:b8:58:38:ad:d3:f5:37:05:
                    2b:f2:1c:6e:1f:56:60:a3:2c:00:21:40:11:31:d7:
                    79:47:07:7a:ee:09:3e:8e:40:99:6a:5e:41:38:60:
                    83:2e:ca:e1:b6:6b:c3:04:4b:ff:18:d1:97:01:d3:
                    8b:34:76:d2:2b:6e:a9:0a:99:cf:ce:1d:ce:93:81:
                    61:19:54:d0:8e:40:54:60:af:e0:f5:76:c3:a1:7a:
                    10:d7:55:58:18:9a:5b:fb:f7:5f:d3:4f:07:89:dc:
                    57:b2:b5:d9:96:df:4c:a4:1d:e0:bf:5c:4b:49:48:
                    3a:81:c0:53:36:d1:c2:00:20:21:54:4b:21:b5:dc:
                    8f:d3:56:6e:af:86:74:b0:3b:35:ce:49:04:d9:86:
                    f4:37:6e:f7:48:f4:47:f4:f0:5a:1e:eb:93:e5:23:
                    2d:36:30:b3:27:5d:70:17:f1:4d:65:bd:fe:70:d1:
                    61:c0:9d:79:2d:d3:ad:af:4c:9f:28:79:a2:40:d3:
                    04:57:43:c2:d7:a5:1e:26:5a:cd:34:23:d9:6b:9e:
                    c3:d5
                Exponent: 65537 (0x10001)
        X509v3 extensions:
            X509v3 Basic Constraints: 
                CA:FALSE
            X509v3 Subject Key Identifier: 
                B3:5D:DF:23:AA:5A:07:9C:78:C2:E5:B7:57:8E:55:23:DC:FD:81:01
            X509v3 Authority Key Identifier: 
                84:66:AB:48:02:71:DF:0A:70:45:A3:5A:67:06:15:AB:95:27:82:68
            X509v3 Key Usage: 
                Digital Signature, Non Repudiation, Key Encipherment
            X509v3 Extended Key Usage: 
                TLS Web Server Authentication
            X509v3 Subject Alternative Name: 
                DNS:web-platform.test, DNS:www.web-platform.test, DNS:not-web-platform.test, DNS:www2.web-platform.test, DNS:www1.web-platform.test, DNS:www.not-web-platform.test, DNS:www.www.web-platform.test, DNS:www2.not-web-platform.test, DNS:www1.www.web-platform.test, DNS:www.www2.web-platform.test, DNS:www1.not-web-platform.test, DNS:www.www1.web-platform.test, DNS:www2.www.web-platform.test, DNS:www2.www1.web-platform.test, DNS:www1.www2.web-platform.test, DNS:www1.www1.web-platform.test, DNS:www2.www2.web-platform.test, DNS:www.www.not-web-platform.test, DNS:xn--lve-6lad.web-platform.test, DNS:www.www2.not-web-platform.test, DNS:www.www1.not-web-platform.test, DNS:www1.www.not-web-platform.test, DNS:www2.www.not-web-platform.test, DNS:www2.www2.not-web-platform.test, DNS:www1.www2.not-web-platform.test, DNS:www1.www1.not-web-platform.test, DNS:www2.www1.not-web-platform.test, DNS:www.xn--lve-6lad.web-platform.test, DNS:xn--lve-6lad.not-web-platform.test, DNS:xn--lve-6lad.www.web-platform.test, DNS:xn--lve-6lad.www2.web-platform.test, DNS:xn--lve-6lad.www1.web-platform.test, DNS:www2.xn--lve-6lad.web-platform.test, DNS:www1.xn--lve-6lad.web-platform.test, DNS:www.xn--lve-6lad.not-web-platform.test, DNS:xn--lve-6lad.www.not-web-platform.test, DNS:xn--lve-6lad.www1.not-web-platform.test, DNS:xn--lve-6lad.www2.not-web-platform.test, DNS:www1.xn--lve-6lad.not-web-platform.test, DNS:www2.xn--lve-6lad.not-web-platform.test, DNS:xn--n8j6ds53lwwkrqhv28a.web-platform.test, DNS:xn--lve-6lad.xn--lve-6lad.web-platform.test, DNS:www.xn--n8j6ds53lwwkrqhv28a.web-platform.test, DNS:xn--n8j6ds53lwwkrqhv28a.not-web-platform.test, DNS:xn--n8j6ds53lwwkrqhv28a.www.web-platform.test, DNS:www1.xn--n8j6ds53lwwkrqhv28a.web-platform.test, DNS:xn--n8j6ds53lwwkrqhv28a.www2.web-platform.test, DNS:www2.xn--n8j6ds53lwwkrqhv28a.web-platform.test, DNS:xn--n8j6ds53lwwkrqhv28a.www1.web-platform.test, DNS:xn--lve-6lad.xn--lve-6lad.not-web-platform.test, DNS:www.xn--n8j6ds53lwwkrqhv28a.not-web-platform.test, DNS:xn--n8j6ds53lwwkrqhv28a.www.not-web-platform.test, DNS:xn--n8j6ds53lwwkrqhv28a.www1.not-web-platform.test, DNS:xn--n8j6ds53lwwkrqhv28a.www2.not-web-platform.test, DNS:www1.xn--n8j6ds53lwwkrqhv28a.not-web-platform.test, DNS:www2.xn--n8j6ds53lwwkrqhv28a.not-web-platform.test, DNS:xn--n8j6ds53lwwkrqhv28a.xn--lve-6lad.web-platform.test, DNS:xn--lve-6lad.xn--n8j6ds53lwwkrqhv28a.web-platform.test, DNS:xn--n8j6ds53lwwkrqhv28a.xn--lve-6lad.not-web-platform.test, DNS:xn--lve-6lad.xn--n8j6ds53lwwkrqhv28a.not-web-platform.test, DNS:xn--n8j6ds53lwwkrqhv28a.xn--n8j6ds53lwwkrqhv28a.web-platform.test, DNS:xn--n8j6ds53lwwkrqhv28a.xn--n8j6ds53lwwkrqhv28a.not-web-platform.test
    Signature Algorithm: sha256WithRSAEncryption
    Signature Value:
        93:09:26:70:71:ae:04:2b:59:01:85:13:14:9b:71:d3:d5:18:
        5d:e1:bd:03:25:cb:33:d6:45:d2:a7:10:c8:74:c1:0e:56:78:
        9f:60:91:c7:bb:97:e7:bd:e0:2f:4d:d4:59:b1:6f:5d:a5:6d:
        82:34:3a:55:fb:7f:94:17:b9:e7:18:41:2c:95:e5:7e:4d:4d:
        85:c9:a3:21:1b:30:35:f2:e0:fe:4f:8a:d8:33:f5:19:1e:09:
        bf:7d:a6:3f:17:a5:5f:79:93:06:da:80:c3:d2:95:30:f6:b4:
        ff:5c:8d:10:d0:3e:a4:3c:3c:72:b9:32:ad:fd:5a:8d:00:18:
        63:cf:6a:74:c2:5c:d9:82:ba:94:9d:76:ae:61:9d:8f:d2:60:
        03:e4:4b:e7:8e:b3:68:6f:61:0d:a8:4d:32:dc:ff:cf:d0:5f:
        25:69:ed:56:3d:b8:5b:f3:75:b7:b1:c1:1c:47:70:4c:23:83:
        e9:76:88:cf:9f:77:73:ba:74:93:2c:41:c0:40:14:37:dd:ec:
        2c:af:55:e4:ed:1b:18:60:8b:2c:c6:46:98:9b:1f:e7:9d:6c:
        c2:6c:ae:6d:a6:de:ff:48:d2:c5:b2:dd:06:dc:e2:68:d9:fb:
        32:41:b1:26:73:87:37:ea:2f:e4:f5:47:4a:94:be:ca:be:c6:
        f8:ba:a9:0e
-----BEGIN CERTIFICATE-----
MIIMsjCCC5qgAwIBAgIDAOgTMA0GCSqGSIb3DQEBCwUAMB0xGzAZBgNVBAMMEndl
Yi1wbGF0Zm9ybS10ZXN0czAeFw0yNTAyMTIxMDI0NDFaFw0yNjAyMTIxMDI0NDFa
MBwxGjAYBgNVBAMMEXdlYi1wbGF0Zm9ybS50ZXN0MIIBIjANBgkqhkiG9w0BAQEF
AAOCAQ8AMIIBCgKCAQEA0ZsQwndqjy4vhMgSMZ5hsOs8d90ao/xkhv141rF6HkB2
m1zPy86IAm1j4XjVVPBgPm//uFg4rdP1NwUr8hxuH1ZgoywAIUARMdd5Rwd67gk+
jkCZal5BOGCDLsrhtmvDBEv/GNGXAdOLNHbSK26pCpnPzh3Ok4FhGVTQjkBUYK/g
9XbDoXoQ11VYGJpb+/df008HidxXsrXZlt9MpB3gv1xLSUg6gcBTNtHCACAhVEsh
tdyP01Zur4Z0sDs1zkkE2Yb0N273SPRH9PBaHuuT5SMtNjCzJ11wF/FNZb3+cNFh
wJ15LdOtr0yfKHmiQNMEV0PC16UeJlrNNCPZa57D1QIDAQABo4IJ+jCCCfYwCQYD
VR0TBAIwADAdBgNVHQ4EFgQUs13fI6paB5x4wuW3V45VI9z9gQEwHwYDVR0jBBgw
FoAUhGarSAJx3wpwRaNaZwYVq5UngmgwCwYDVR0PBAQDAgXgMBMGA1UdJQQMMAoG
CCsGAQUFBwMBMIIJhQYDVR0RBIIJfDCCCXiCEXdlYi1wbGF0Zm9ybS50ZXN0ghV3
d3cud2ViLXBsYXRmb3JtLnRlc3SCFW5vdC13ZWItcGxhdGZvcm0udGVzdIIWd3d3
Mi53ZWItcGxhdGZvcm0udGVzdIIWd3d3MS53ZWItcGxhdGZvcm0udGVzdIIZd3d3
Lm5vdC13ZWItcGxhdGZvcm0udGVzdIIZd3d3Lnd3dy53ZWItcGxhdGZvcm0udGVz
dIIad3d3Mi5ub3Qtd2ViLXBsYXRmb3JtLnRlc3SCGnd3dzEud3d3LndlYi1wbGF0
Zm9ybS50ZXN0ghp3d3cud3d3Mi53ZWItcGxhdGZvcm0udGVzdIIad3d3MS5ub3Qt
d2ViLXBsYXRmb3JtLnRlc3SCGnd3dy53d3cxLndlYi1wbGF0Zm9ybS50ZXN0ghp3
d3cyLnd3dy53ZWItcGxhdGZvcm0udGVzdIIbd3d3Mi53d3cxLndlYi1wbGF0Zm9y
bS50ZXN0ght3d3cxLnd3dzIud2ViLXBsYXRmb3JtLnRlc3SCG3d3dzEud3d3MS53
ZWItcGxhdGZvcm0udGVzdIIbd3d3Mi53d3cyLndlYi1wbGF0Zm9ybS50ZXN0gh13
d3cud3d3Lm5vdC13ZWItcGxhdGZvcm0udGVzdIIeeG4tLWx2ZS02bGFkLndlYi1w
bGF0Zm9ybS50ZXN0gh53d3cud3d3Mi5ub3Qtd2ViLXBsYXRmb3JtLnRlc3SCHnd3
dy53d3cxLm5vdC13ZWItcGxhdGZvcm0udGVzdIIed3d3MS53d3cubm90LXdlYi1w
bGF0Zm9ybS50ZXN0gh53d3cyLnd3dy5ub3Qtd2ViLXBsYXRmb3JtLnRlc3SCH3d3
dzIud3d3Mi5ub3Qtd2ViLXBsYXRmb3JtLnRlc3SCH3d3dzEud3d3Mi5ub3Qtd2Vi
LXBsYXRmb3JtLnRlc3SCH3d3dzEud3d3MS5ub3Qtd2ViLXBsYXRmb3JtLnRlc3SC
H3d3dzIud3d3MS5ub3Qtd2ViLXBsYXRmb3JtLnRlc3SCInd3dy54bi0tbHZlLTZs
YWQud2ViLXBsYXRmb3JtLnRlc3SCInhuLS1sdmUtNmxhZC5ub3Qtd2ViLXBsYXRm
b3JtLnRlc3SCInhuLS1sdmUtNmxhZC53d3cud2ViLXBsYXRmb3JtLnRlc3SCI3hu
LS1sdmUtNmxhZC53d3cyLndlYi1wbGF0Zm9ybS50ZXN0giN4bi0tbHZlLTZsYWQu
d3d3MS53ZWItcGxhdGZvcm0udGVzdIIjd3d3Mi54bi0tbHZlLTZsYWQud2ViLXBs
YXRmb3JtLnRlc3SCI3d3dzEueG4tLWx2ZS02bGFkLndlYi1wbGF0Zm9ybS50ZXN0
giZ3d3cueG4tLWx2ZS02bGFkLm5vdC13ZWItcGxhdGZvcm0udGVzdIImeG4tLWx2
ZS02bGFkLnd3dy5ub3Qtd2ViLXBsYXRmb3JtLnRlc3SCJ3huLS1sdmUtNmxhZC53
d3cxLm5vdC13ZWItcGxhdGZvcm0udGVzdIIneG4tLWx2ZS02bGFkLnd3dzIubm90
LXdlYi1wbGF0Zm9ybS50ZXN0gid3d3cxLnhuLS1sdmUtNmxhZC5ub3Qtd2ViLXBs
YXRmb3JtLnRlc3SCJ3d3dzIueG4tLWx2ZS02bGFkLm5vdC13ZWItcGxhdGZvcm0u
dGVzdIIpeG4tLW44ajZkczUzbHd3a3JxaHYyOGEud2ViLXBsYXRmb3JtLnRlc3SC
K3huLS1sdmUtNmxhZC54bi0tbHZlLTZsYWQud2ViLXBsYXRmb3JtLnRlc3SCLXd3
dy54bi0tbjhqNmRzNTNsd3drcnFodjI4YS53ZWItcGxhdGZvcm0udGVzdIIteG4t
LW44ajZkczUzbHd3a3JxaHYyOGEubm90LXdlYi1wbGF0Zm9ybS50ZXN0gi14bi0t
bjhqNmRzNTNsd3drcnFodjI4YS53d3cud2ViLXBsYXRmb3JtLnRlc3SCLnd3dzEu
eG4tLW44ajZkczUzbHd3a3JxaHYyOGEud2ViLXBsYXRmb3JtLnRlc3SCLnhuLS1u
OGo2ZHM1M2x3d2tycWh2MjhhLnd3dzIud2ViLXBsYXRmb3JtLnRlc3SCLnd3dzIu
eG4tLW44ajZkczUzbHd3a3JxaHYyOGEud2ViLXBsYXRmb3JtLnRlc3SCLnhuLS1u
OGo2ZHM1M2x3d2tycWh2MjhhLnd3dzEud2ViLXBsYXRmb3JtLnRlc3SCL3huLS1s
dmUtNmxhZC54bi0tbHZlLTZsYWQubm90LXdlYi1wbGF0Zm9ybS50ZXN0gjF3d3cu
eG4tLW44ajZkczUzbHd3a3JxaHYyOGEubm90LXdlYi1wbGF0Zm9ybS50ZXN0gjF4
bi0tbjhqNmRzNTNsd3drcnFodjI4YS53d3cubm90LXdlYi1wbGF0Zm9ybS50ZXN0
gjJ4bi0tbjhqNmRzNTNsd3drcnFodjI4YS53d3cxLm5vdC13ZWItcGxhdGZvcm0u
dGVzdIIyeG4tLW44ajZkczUzbHd3a3JxaHYyOGEud3d3Mi5ub3Qtd2ViLXBsYXRm
b3JtLnRlc3SCMnd3dzEueG4tLW44ajZkczUzbHd3a3JxaHYyOGEubm90LXdlYi1w
bGF0Zm9ybS50ZXN0gjJ3d3cyLnhuLS1uOGo2ZHM1M2x3d2tycWh2MjhhLm5vdC13
ZWItcGxhdGZvcm0udGVzdII2eG4tLW44ajZkczUzbHd3a3JxaHYyOGEueG4tLWx2
ZS02bGFkLndlYi1wbGF0Zm9ybS50ZXN0gjZ4bi0tbHZlLTZsYWQueG4tLW44ajZk
czUzbHd3a3JxaHYyOGEud2ViLXBsYXRmb3JtLnRlc3SCOnhuLS1uOGo2ZHM1M2x3
d2tycWh2MjhhLnhuLS1sdmUtNmxhZC5ub3Qtd2ViLXBsYXRmb3JtLnRlc3SCOnhu
LS1sdmUtNmxhZC54bi0tbjhqNmRzNTNsd3drcnFodjI4YS5ub3Qtd2ViLXBsYXRm
b3JtLnRlc3SCQXhuLS1uOGo2ZHM1M2x3d2tycWh2MjhhLnhuLS1uOGo2ZHM1M2x3
d2tycWh2MjhhLndlYi1wbGF0Zm9ybS50ZXN0gkV4bi0tbjhqNmRzNTNsd3drcnFo
djI4YS54bi0tbjhqNmRzNTNsd3drcnFodjI4YS5ub3Qtd2ViLXBsYXRmb3JtLnRl
c3QwDQYJKoZIhvcNAQELBQADggEBAJMJJnBxrgQrWQGFExSbcdPVGF3hvQMlyzPW
RdKnEMh0wQ5WeJ9gkce7l+e94C9N1Fmxb12lbYI0OlX7f5QXuecYQSyV5X5NTYXJ
oyEbMDXy4P5Pitgz9RkeCb99pj8XpV95kwbagMPSlTD2tP9cjRDQPqQ8PHK5Mq39
Wo0AGGPPanTCXNmCupSddq5hnY/SYAPkS+eOs2hvYQ2oTTLc/8/QXyVp7VY9uFvz
dbexwRxHcEwjg+l2iM+fd3O6dJMsQcBAFDfd7CyvVeTtGxhgiyzGRpibH+edbMJs
rm2m3v9I0sWy3Qbc4mjZ+zJBsSZzhzfqL+T1R0qUvsq+xvi6qQ4=
-----END CERTIFICATE-----
