Certificate:
    Data:
        Version: 3 (0x2)
        Serial Number: 346830 (0x54ace)
        Signature Algorithm: sha256WithRSAEncryption
        Issuer: CN=web-platform-tests
        Validity
            Not Before: Mar 12 00:49:45 2024 GMT
            Not After : Mar 12 00:49:45 2025 GMT
        Subject: CN=web-platform.test
        Subject Public Key Info:
            Public Key Algorithm: rsaEncryption
                RSA Public-Key: (2048 bit)
                Modulus:
                    00:c3:fa:75:aa:5c:1f:75:46:c2:a1:12:08:c1:10:
                    ec:eb:64:00:33:fd:ab:92:38:22:82:02:84:8b:0e:
                    a2:2d:54:76:6a:bd:29:72:d6:e5:c0:2d:17:59:fa:
                    f2:a1:bc:d2:8c:fd:0a:1d:c7:51:4b:35:61:3e:86:
                    30:a8:6d:95:88:15:9d:2f:fc:bb:68:1e:cf:a0:6b:
                    7a:ee:ed:9f:56:d8:e9:98:0f:aa:4c:c5:21:84:8c:
                    6d:b4:7a:28:73:39:9e:d2:8a:04:b7:b9:35:45:73:
                    ab:58:0f:4e:cb:ca:d5:4c:82:3c:3f:c0:73:96:2c:
                    e4:ab:fa:8d:e6:25:59:0d:7a:de:c6:e5:d3:0e:bb:
                    f6:89:57:d1:f4:55:c3:66:5b:12:a8:d3:a4:17:80:
                    9e:6c:1d:78:b5:03:06:be:18:2c:23:3c:25:da:a2:
                    cc:32:23:1c:7d:f1:2a:eb:24:7e:40:91:97:a4:e3:
                    c8:ed:07:66:9a:37:51:01:4f:a1:75:a7:b5:d5:0c:
                    97:98:c4:eb:d1:8a:9a:9e:31:f1:10:cf:38:1b:57:
                    77:e1:20:0c:28:5f:dc:f6:1a:84:14:9c:0f:62:ed:
                    82:d0:44:55:da:e7:06:23:0f:be:5e:d5:0b:74:fa:
                    4f:0b:60:8e:7b:88:6c:ac:4d:ce:bb:ed:6a:d8:10:
                    b0:e3
                Exponent: 65537 (0x10001)
        X509v3 extensions:
            X509v3 Basic Constraints: 
                CA:FALSE
            X509v3 Subject Key Identifier: 
                38:21:34:6B:FD:46:4E:F2:F5:01:C8:41:47:2D:C3:4C:BA:82:C1:DD
            X509v3 Authority Key Identifier: 
                keyid:7D:C1:4F:35:51:A4:9D:7E:A9:94:D9:D5:3D:2A:91:99:62:5D:4C:F7

            X509v3 Key Usage: 
                Digital Signature, Non Repudiation, Key Encipherment
            X509v3 Extended Key Usage: 
                TLS Web Server Authentication
            X509v3 Subject Alternative Name: 
                DNS:web-platform.test, DNS:www.web-platform.test, DNS:not-web-platform.test, DNS:www2.web-platform.test, DNS:www1.web-platform.test, DNS:www.not-web-platform.test, DNS:www.www.web-platform.test, DNS:www2.www.web-platform.test, DNS:www1.www.web-platform.test, DNS:www2.not-web-platform.test, DNS:www1.not-web-platform.test, DNS:www.www2.web-platform.test, DNS:www.www1.web-platform.test, DNS:www2.www2.web-platform.test, DNS:www1.www2.web-platform.test, DNS:www1.www1.web-platform.test, DNS:www2.www1.web-platform.test, DNS:www.www.not-web-platform.test, DNS:xn--lve-6lad.web-platform.test, DNS:www2.www.not-web-platform.test, DNS:www.www1.not-web-platform.test, DNS:www.www2.not-web-platform.test, DNS:www1.www.not-web-platform.test, DNS:www2.www1.not-web-platform.test, DNS:www2.www2.not-web-platform.test, DNS:www1.www2.not-web-platform.test, DNS:www1.www1.not-web-platform.test, DNS:www.xn--lve-6lad.web-platform.test, DNS:xn--lve-6lad.www.web-platform.test, DNS:xn--lve-6lad.not-web-platform.test, DNS:xn--lve-6lad.www1.web-platform.test, DNS:www1.xn--lve-6lad.web-platform.test, DNS:xn--lve-6lad.www2.web-platform.test, DNS:www2.xn--lve-6lad.web-platform.test, DNS:xn--lve-6lad.www.not-web-platform.test, DNS:www.xn--lve-6lad.not-web-platform.test, DNS:www2.xn--lve-6lad.not-web-platform.test, DNS:www1.xn--lve-6lad.not-web-platform.test, DNS:xn--lve-6lad.www1.not-web-platform.test, DNS:xn--lve-6lad.www2.not-web-platform.test, DNS:xn--n8j6ds53lwwkrqhv28a.web-platform.test, DNS:xn--lve-6lad.xn--lve-6lad.web-platform.test, DNS:xn--n8j6ds53lwwkrqhv28a.not-web-platform.test, DNS:xn--n8j6ds53lwwkrqhv28a.www.web-platform.test, DNS:www.xn--n8j6ds53lwwkrqhv28a.web-platform.test, DNS:xn--n8j6ds53lwwkrqhv28a.www2.web-platform.test, DNS:www1.xn--n8j6ds53lwwkrqhv28a.web-platform.test, DNS:xn--n8j6ds53lwwkrqhv28a.www1.web-platform.test, DNS:www2.xn--n8j6ds53lwwkrqhv28a.web-platform.test, DNS:xn--lve-6lad.xn--lve-6lad.not-web-platform.test, DNS:www.xn--n8j6ds53lwwkrqhv28a.not-web-platform.test, DNS:xn--n8j6ds53lwwkrqhv28a.www.not-web-platform.test, DNS:xn--n8j6ds53lwwkrqhv28a.www2.not-web-platform.test, DNS:www2.xn--n8j6ds53lwwkrqhv28a.not-web-platform.test, DNS:xn--n8j6ds53lwwkrqhv28a.www1.not-web-platform.test, DNS:www1.xn--n8j6ds53lwwkrqhv28a.not-web-platform.test, DNS:xn--lve-6lad.xn--n8j6ds53lwwkrqhv28a.web-platform.test, DNS:xn--n8j6ds53lwwkrqhv28a.xn--lve-6lad.web-platform.test, DNS:xn--n8j6ds53lwwkrqhv28a.xn--lve-6lad.not-web-platform.test, DNS:xn--lve-6lad.xn--n8j6ds53lwwkrqhv28a.not-web-platform.test, DNS:xn--n8j6ds53lwwkrqhv28a.xn--n8j6ds53lwwkrqhv28a.web-platform.test, DNS:xn--n8j6ds53lwwkrqhv28a.xn--n8j6ds53lwwkrqhv28a.not-web-platform.test
    Signature Algorithm: sha256WithRSAEncryption
         8f:c4:81:5a:45:79:f6:5a:f8:2b:60:7a:6e:de:2b:a3:e7:18:
         8e:b5:cc:b3:fb:a8:b4:04:2b:44:f3:28:ee:11:bc:b1:7a:a3:
         65:a0:11:6c:16:25:10:34:d5:39:5c:aa:ac:cd:45:1b:ee:af:
         76:c6:de:c1:51:17:6b:19:87:e4:89:b6:5e:a9:c0:40:9b:fb:
         d8:3e:70:52:e2:62:02:9a:c7:b6:39:87:15:1b:14:0d:7f:8b:
         99:8e:32:d6:7f:32:40:02:ca:f4:2e:ef:eb:47:67:40:7b:30:
         f8:36:1c:9a:c7:df:16:4f:35:e9:cc:22:8f:c2:89:e9:e9:21:
         4a:47:5c:3a:fc:42:91:9d:2d:80:20:09:8d:49:11:e1:a8:d1:
         f9:40:a5:c7:42:00:a0:fc:d7:17:b4:2c:f8:a7:90:28:3b:68:
         86:6d:29:6b:a1:13:a5:17:1f:44:3c:7c:72:e4:0a:ca:37:67:
         e1:a7:54:c4:d0:47:73:c4:88:15:69:ac:cc:f4:4f:03:97:24:
         59:02:18:34:76:87:b3:71:7c:9c:ed:16:3f:84:c5:a9:0e:d6:
         72:91:94:34:a5:b2:5e:c3:d2:e4:2d:6b:e7:7c:11:10:8d:9e:
         06:22:07:8d:67:a1:65:c5:44:a2:e6:bd:49:52:69:97:85:1e:
         ea:db:43:29
-----BEGIN CERTIFICATE-----
MIIMsjCCC5qgAwIBAgIDBUrOMA0GCSqGSIb3DQEBCwUAMB0xGzAZBgNVBAMMEndl
Yi1wbGF0Zm9ybS10ZXN0czAeFw0yNDAzMTIwMDQ5NDVaFw0yNTAzMTIwMDQ5NDVa
MBwxGjAYBgNVBAMMEXdlYi1wbGF0Zm9ybS50ZXN0MIIBIjANBgkqhkiG9w0BAQEF
AAOCAQ8AMIIBCgKCAQEAw/p1qlwfdUbCoRIIwRDs62QAM/2rkjgiggKEiw6iLVR2
ar0pctblwC0XWfryobzSjP0KHcdRSzVhPoYwqG2ViBWdL/y7aB7PoGt67u2fVtjp
mA+qTMUhhIxttHooczme0ooEt7k1RXOrWA9Oy8rVTII8P8Bzlizkq/qN5iVZDXre
xuXTDrv2iVfR9FXDZlsSqNOkF4CebB14tQMGvhgsIzwl2qLMMiMcffEq6yR+QJGX
pOPI7QdmmjdRAU+hdae11QyXmMTr0YqanjHxEM84G1d34SAMKF/c9hqEFJwPYu2C
0ERV2ucGIw++XtULdPpPC2COe4hsrE3Ou+1q2BCw4wIDAQABo4IJ+jCCCfYwCQYD
VR0TBAIwADAdBgNVHQ4EFgQUOCE0a/1GTvL1AchBRy3DTLqCwd0wHwYDVR0jBBgw
FoAUfcFPNVGknX6plNnVPSqRmWJdTPcwCwYDVR0PBAQDAgXgMBMGA1UdJQQMMAoG
CCsGAQUFBwMBMIIJhQYDVR0RBIIJfDCCCXiCEXdlYi1wbGF0Zm9ybS50ZXN0ghV3
d3cud2ViLXBsYXRmb3JtLnRlc3SCFW5vdC13ZWItcGxhdGZvcm0udGVzdIIWd3d3
Mi53ZWItcGxhdGZvcm0udGVzdIIWd3d3MS53ZWItcGxhdGZvcm0udGVzdIIZd3d3
Lm5vdC13ZWItcGxhdGZvcm0udGVzdIIZd3d3Lnd3dy53ZWItcGxhdGZvcm0udGVz
dIIad3d3Mi53d3cud2ViLXBsYXRmb3JtLnRlc3SCGnd3dzEud3d3LndlYi1wbGF0
Zm9ybS50ZXN0ghp3d3cyLm5vdC13ZWItcGxhdGZvcm0udGVzdIIad3d3MS5ub3Qt
d2ViLXBsYXRmb3JtLnRlc3SCGnd3dy53d3cyLndlYi1wbGF0Zm9ybS50ZXN0ghp3
d3cud3d3MS53ZWItcGxhdGZvcm0udGVzdIIbd3d3Mi53d3cyLndlYi1wbGF0Zm9y
bS50ZXN0ght3d3cxLnd3dzIud2ViLXBsYXRmb3JtLnRlc3SCG3d3dzEud3d3MS53
ZWItcGxhdGZvcm0udGVzdIIbd3d3Mi53d3cxLndlYi1wbGF0Zm9ybS50ZXN0gh13
d3cud3d3Lm5vdC13ZWItcGxhdGZvcm0udGVzdIIeeG4tLWx2ZS02bGFkLndlYi1w
bGF0Zm9ybS50ZXN0gh53d3cyLnd3dy5ub3Qtd2ViLXBsYXRmb3JtLnRlc3SCHnd3
dy53d3cxLm5vdC13ZWItcGxhdGZvcm0udGVzdIIed3d3Lnd3dzIubm90LXdlYi1w
bGF0Zm9ybS50ZXN0gh53d3cxLnd3dy5ub3Qtd2ViLXBsYXRmb3JtLnRlc3SCH3d3
dzIud3d3MS5ub3Qtd2ViLXBsYXRmb3JtLnRlc3SCH3d3dzIud3d3Mi5ub3Qtd2Vi
LXBsYXRmb3JtLnRlc3SCH3d3dzEud3d3Mi5ub3Qtd2ViLXBsYXRmb3JtLnRlc3SC
H3d3dzEud3d3MS5ub3Qtd2ViLXBsYXRmb3JtLnRlc3SCInd3dy54bi0tbHZlLTZs
YWQud2ViLXBsYXRmb3JtLnRlc3SCInhuLS1sdmUtNmxhZC53d3cud2ViLXBsYXRm
b3JtLnRlc3SCInhuLS1sdmUtNmxhZC5ub3Qtd2ViLXBsYXRmb3JtLnRlc3SCI3hu
LS1sdmUtNmxhZC53d3cxLndlYi1wbGF0Zm9ybS50ZXN0giN3d3cxLnhuLS1sdmUt
NmxhZC53ZWItcGxhdGZvcm0udGVzdIIjeG4tLWx2ZS02bGFkLnd3dzIud2ViLXBs
YXRmb3JtLnRlc3SCI3d3dzIueG4tLWx2ZS02bGFkLndlYi1wbGF0Zm9ybS50ZXN0
giZ4bi0tbHZlLTZsYWQud3d3Lm5vdC13ZWItcGxhdGZvcm0udGVzdIImd3d3Lnhu
LS1sdmUtNmxhZC5ub3Qtd2ViLXBsYXRmb3JtLnRlc3SCJ3d3dzIueG4tLWx2ZS02
bGFkLm5vdC13ZWItcGxhdGZvcm0udGVzdIInd3d3MS54bi0tbHZlLTZsYWQubm90
LXdlYi1wbGF0Zm9ybS50ZXN0gid4bi0tbHZlLTZsYWQud3d3MS5ub3Qtd2ViLXBs
YXRmb3JtLnRlc3SCJ3huLS1sdmUtNmxhZC53d3cyLm5vdC13ZWItcGxhdGZvcm0u
dGVzdIIpeG4tLW44ajZkczUzbHd3a3JxaHYyOGEud2ViLXBsYXRmb3JtLnRlc3SC
K3huLS1sdmUtNmxhZC54bi0tbHZlLTZsYWQud2ViLXBsYXRmb3JtLnRlc3SCLXhu
LS1uOGo2ZHM1M2x3d2tycWh2MjhhLm5vdC13ZWItcGxhdGZvcm0udGVzdIIteG4t
LW44ajZkczUzbHd3a3JxaHYyOGEud3d3LndlYi1wbGF0Zm9ybS50ZXN0gi13d3cu
eG4tLW44ajZkczUzbHd3a3JxaHYyOGEud2ViLXBsYXRmb3JtLnRlc3SCLnhuLS1u
OGo2ZHM1M2x3d2tycWh2MjhhLnd3dzIud2ViLXBsYXRmb3JtLnRlc3SCLnd3dzEu
eG4tLW44ajZkczUzbHd3a3JxaHYyOGEud2ViLXBsYXRmb3JtLnRlc3SCLnhuLS1u
OGo2ZHM1M2x3d2tycWh2MjhhLnd3dzEud2ViLXBsYXRmb3JtLnRlc3SCLnd3dzIu
eG4tLW44ajZkczUzbHd3a3JxaHYyOGEud2ViLXBsYXRmb3JtLnRlc3SCL3huLS1s
dmUtNmxhZC54bi0tbHZlLTZsYWQubm90LXdlYi1wbGF0Zm9ybS50ZXN0gjF3d3cu
eG4tLW44ajZkczUzbHd3a3JxaHYyOGEubm90LXdlYi1wbGF0Zm9ybS50ZXN0gjF4
bi0tbjhqNmRzNTNsd3drcnFodjI4YS53d3cubm90LXdlYi1wbGF0Zm9ybS50ZXN0
gjJ4bi0tbjhqNmRzNTNsd3drcnFodjI4YS53d3cyLm5vdC13ZWItcGxhdGZvcm0u
dGVzdIIyd3d3Mi54bi0tbjhqNmRzNTNsd3drcnFodjI4YS5ub3Qtd2ViLXBsYXRm
b3JtLnRlc3SCMnhuLS1uOGo2ZHM1M2x3d2tycWh2MjhhLnd3dzEubm90LXdlYi1w
bGF0Zm9ybS50ZXN0gjJ3d3cxLnhuLS1uOGo2ZHM1M2x3d2tycWh2MjhhLm5vdC13
ZWItcGxhdGZvcm0udGVzdII2eG4tLWx2ZS02bGFkLnhuLS1uOGo2ZHM1M2x3d2ty
cWh2MjhhLndlYi1wbGF0Zm9ybS50ZXN0gjZ4bi0tbjhqNmRzNTNsd3drcnFodjI4
YS54bi0tbHZlLTZsYWQud2ViLXBsYXRmb3JtLnRlc3SCOnhuLS1uOGo2ZHM1M2x3
d2tycWh2MjhhLnhuLS1sdmUtNmxhZC5ub3Qtd2ViLXBsYXRmb3JtLnRlc3SCOnhu
LS1sdmUtNmxhZC54bi0tbjhqNmRzNTNsd3drcnFodjI4YS5ub3Qtd2ViLXBsYXRm
b3JtLnRlc3SCQXhuLS1uOGo2ZHM1M2x3d2tycWh2MjhhLnhuLS1uOGo2ZHM1M2x3
d2tycWh2MjhhLndlYi1wbGF0Zm9ybS50ZXN0gkV4bi0tbjhqNmRzNTNsd3drcnFo
djI4YS54bi0tbjhqNmRzNTNsd3drcnFodjI4YS5ub3Qtd2ViLXBsYXRmb3JtLnRl
c3QwDQYJKoZIhvcNAQELBQADggEBAI/EgVpFefZa+Ctgem7eK6PnGI61zLP7qLQE
K0TzKO4RvLF6o2WgEWwWJRA01TlcqqzNRRvur3bG3sFRF2sZh+SJtl6pwECb+9g+
cFLiYgKax7Y5hxUbFA1/i5mOMtZ/MkACyvQu7+tHZ0B7MPg2HJrH3xZPNenMIo/C
ienpIUpHXDr8QpGdLYAgCY1JEeGo0flApcdCAKD81xe0LPinkCg7aIZtKWuhE6UX
H0Q8fHLkCso3Z+GnVMTQR3PEiBVprMz0TwOXJFkCGDR2h7NxfJztFj+ExakO1nKR
lDSlsl7D0uQta+d8ERCNngYiB41noWXFRKLmvUlSaZeFHurbQyk=
-----END CERTIFICATE-----
