Certificate:
    Data:
        Version: 3 (0x2)
        Serial Number: 508504 (0x7c258)
        Signature Algorithm: sha256WithRSAEncryption
        Issuer: CN=web-platform-tests
        Validity
            Not Before: Jul  6 06:34:13 2022 GMT
            Not After : Jul  6 06:34:13 2023 GMT
        Subject: CN=web-platform.test
        Subject Public Key Info:
            Public Key Algorithm: rsaEncryption
                RSA Public-Key: (2048 bit)
                Modulus:
                    00:af:3e:bc:b1:9b:04:e8:6c:73:cb:50:3e:22:ab:
                    f0:22:51:5a:b5:20:74:9c:5b:fa:9b:fd:03:ef:4c:
                    5a:8f:4c:dd:e1:85:45:f2:02:ed:5a:95:05:42:f6:
                    55:d2:c2:89:a0:22:b4:46:d9:7a:b4:34:54:14:f7:
                    0b:56:34:b7:20:f2:9c:35:04:11:3d:ce:9f:4b:e5:
                    d1:b4:aa:34:5f:41:7d:66:2c:66:c7:a4:74:68:20:
                    ca:aa:fd:b9:55:99:68:6f:2d:ce:5a:b5:e9:bc:d9:
                    88:32:6f:c6:c9:79:93:34:b6:c8:6d:e7:f0:91:9a:
                    2a:7c:fd:ab:b2:41:ad:f8:24:f2:e1:50:8c:29:27:
                    da:a1:0a:b1:cd:1b:5a:2c:0f:d9:04:cf:c8:b9:85:
                    20:9d:a9:ef:57:ce:78:fd:d0:ba:86:9e:a4:9d:aa:
                    45:35:4b:f7:d0:f4:11:f6:fe:95:4c:e5:d1:59:fd:
                    c3:e2:72:7d:f6:9a:0b:01:0c:e5:d1:c2:61:c8:65:
                    60:74:6d:ec:ac:79:b4:c1:70:3e:4e:5c:8b:05:f0:
                    7e:34:91:c5:9c:53:c7:2b:77:2f:1a:ed:84:f7:45:
                    4a:f6:8e:1c:f3:d7:f3:ab:df:bd:a3:b5:bd:9b:be:
                    ee:28:e8:7a:ee:c0:13:d1:d5:f0:f5:df:82:65:61:
                    df:9b
                Exponent: 65537 (0x10001)
        X509v3 extensions:
            X509v3 Basic Constraints: 
                CA:FALSE
            X509v3 Subject Key Identifier: 
                88:32:87:25:31:C6:DA:43:63:75:BF:91:AC:79:1B:66:E0:7E:77:FC
            X509v3 Authority Key Identifier: 
                keyid:D0:97:34:5D:BA:9A:C9:CE:5F:A5:3D:EE:1B:C8:B9:BB:89:B7:C7:47

            X509v3 Key Usage: 
                Digital Signature, Non Repudiation, Key Encipherment
            X509v3 Extended Key Usage: 
                TLS Web Server Authentication
            X509v3 Subject Alternative Name: 
                DNS:web-platform.test, DNS:www.web-platform.test, DNS:not-web-platform.test, DNS:www2.web-platform.test, DNS:www1.web-platform.test, DNS:www.not-web-platform.test, DNS:www.www.web-platform.test, DNS:www2.www.web-platform.test, DNS:www.www2.web-platform.test, DNS:www1.not-web-platform.test, DNS:www1.www.web-platform.test, DNS:www2.not-web-platform.test, DNS:www.www1.web-platform.test, DNS:www1.www1.web-platform.test, DNS:www2.www1.web-platform.test, DNS:www2.www2.web-platform.test, DNS:www1.www2.web-platform.test, DNS:www.www.not-web-platform.test, DNS:www2.www.not-web-platform.test, DNS:xn--lve-6lad.web-platform.test, DNS:www.www1.not-web-platform.test, DNS:www1.www.not-web-platform.test, DNS:www.www2.not-web-platform.test, DNS:www1.www2.not-web-platform.test, DNS:www2.www1.not-web-platform.test, DNS:www1.www1.not-web-platform.test, DNS:www2.www2.not-web-platform.test, DNS:xn--lve-6lad.not-web-platform.test, DNS:www.xn--lve-6lad.web-platform.test, DNS:xn--lve-6lad.www.web-platform.test, DNS:xn--lve-6lad.www2.web-platform.test, DNS:www2.xn--lve-6lad.web-platform.test, DNS:www1.xn--lve-6lad.web-platform.test, DNS:xn--lve-6lad.www1.web-platform.test, DNS:www.xn--lve-6lad.not-web-platform.test, DNS:xn--lve-6lad.www.not-web-platform.test, DNS:www1.xn--lve-6lad.not-web-platform.test, DNS:www2.xn--lve-6lad.not-web-platform.test, DNS:xn--lve-6lad.www2.not-web-platform.test, DNS:xn--lve-6lad.www1.not-web-platform.test, DNS:xn--n8j6ds53lwwkrqhv28a.web-platform.test, DNS:xn--lve-6lad.xn--lve-6lad.web-platform.test, DNS:www.xn--n8j6ds53lwwkrqhv28a.web-platform.test, DNS:xn--n8j6ds53lwwkrqhv28a.not-web-platform.test, DNS:xn--n8j6ds53lwwkrqhv28a.www.web-platform.test, DNS:www1.xn--n8j6ds53lwwkrqhv28a.web-platform.test, DNS:xn--n8j6ds53lwwkrqhv28a.www2.web-platform.test, DNS:xn--n8j6ds53lwwkrqhv28a.www1.web-platform.test, DNS:www2.xn--n8j6ds53lwwkrqhv28a.web-platform.test, DNS:xn--lve-6lad.xn--lve-6lad.not-web-platform.test, DNS:xn--n8j6ds53lwwkrqhv28a.www.not-web-platform.test, DNS:www.xn--n8j6ds53lwwkrqhv28a.not-web-platform.test, DNS:xn--n8j6ds53lwwkrqhv28a.www1.not-web-platform.test, DNS:xn--n8j6ds53lwwkrqhv28a.www2.not-web-platform.test, DNS:www1.xn--n8j6ds53lwwkrqhv28a.not-web-platform.test, DNS:www2.xn--n8j6ds53lwwkrqhv28a.not-web-platform.test, DNS:xn--n8j6ds53lwwkrqhv28a.xn--lve-6lad.web-platform.test, DNS:xn--lve-6lad.xn--n8j6ds53lwwkrqhv28a.web-platform.test, DNS:xn--lve-6lad.xn--n8j6ds53lwwkrqhv28a.not-web-platform.test, DNS:xn--n8j6ds53lwwkrqhv28a.xn--lve-6lad.not-web-platform.test, DNS:xn--n8j6ds53lwwkrqhv28a.xn--n8j6ds53lwwkrqhv28a.web-platform.test, DNS:xn--n8j6ds53lwwkrqhv28a.xn--n8j6ds53lwwkrqhv28a.not-web-platform.test
    Signature Algorithm: sha256WithRSAEncryption
         e0:b4:d3:ad:d3:3b:27:3b:b5:9e:c0:08:0d:e7:73:34:0c:3a:
         64:b1:9a:1d:1c:71:5d:84:ca:b3:22:6e:b3:67:92:3d:9b:51:
         79:52:f1:af:ee:bd:30:51:20:31:8a:91:44:f3:59:90:aa:ac:
         8a:8d:7a:5b:59:f6:ef:4c:87:8c:75:50:9b:90:87:aa:29:a3:
         63:ac:b7:37:23:c7:16:6a:d6:8e:d9:e1:59:42:17:0f:9a:7b:
         31:c0:00:07:5f:76:49:41:fe:b7:b6:5d:7e:ca:14:26:73:05:
         b1:62:8d:5a:ed:ee:7a:2e:6d:a5:97:b9:7d:3e:76:c4:3f:33:
         0d:d0:25:61:b4:d9:19:1d:32:d6:fe:95:0e:60:46:40:ef:e0:
         de:d6:1a:c6:4e:0e:b2:24:cc:9f:8c:e0:29:84:9b:4b:d3:9f:
         4e:ad:41:1d:77:f7:99:bb:bb:d8:46:a8:dc:db:2a:bb:fe:13:
         80:83:63:39:85:cf:38:1d:c9:2c:36:19:15:76:5d:4b:1a:0c:
         a9:03:0d:e5:ea:9e:62:9f:91:17:b7:15:d6:0c:2b:de:6e:fb:
         70:91:67:53:d4:66:74:a6:a5:7c:43:ff:d6:a5:f9:fe:3b:e0:
         19:77:6d:e4:d0:00:2d:20:74:aa:ca:bf:99:24:8f:ca:14:7f:
         b3:59:f1:cb
-----BEGIN CERTIFICATE-----
MIIMsjCCC5qgAwIBAgIDB8JYMA0GCSqGSIb3DQEBCwUAMB0xGzAZBgNVBAMMEndl
Yi1wbGF0Zm9ybS10ZXN0czAeFw0yMjA3MDYwNjM0MTNaFw0yMzA3MDYwNjM0MTNa
MBwxGjAYBgNVBAMMEXdlYi1wbGF0Zm9ybS50ZXN0MIIBIjANBgkqhkiG9w0BAQEF
AAOCAQ8AMIIBCgKCAQEArz68sZsE6Gxzy1A+IqvwIlFatSB0nFv6m/0D70xaj0zd
4YVF8gLtWpUFQvZV0sKJoCK0Rtl6tDRUFPcLVjS3IPKcNQQRPc6fS+XRtKo0X0F9
Zixmx6R0aCDKqv25VZloby3OWrXpvNmIMm/GyXmTNLbIbefwkZoqfP2rskGt+CTy
4VCMKSfaoQqxzRtaLA/ZBM/IuYUgnanvV854/dC6hp6knapFNUv30PQR9v6VTOXR
Wf3D4nJ99poLAQzl0cJhyGVgdG3srHm0wXA+TlyLBfB+NJHFnFPHK3cvGu2E90VK
9o4c89fzq9+9o7W9m77uKOh67sAT0dXw9d+CZWHfmwIDAQABo4IJ+jCCCfYwCQYD
VR0TBAIwADAdBgNVHQ4EFgQUiDKHJTHG2kNjdb+RrHkbZuB+d/wwHwYDVR0jBBgw
FoAU0Jc0Xbqayc5fpT3uG8i5u4m3x0cwCwYDVR0PBAQDAgXgMBMGA1UdJQQMMAoG
CCsGAQUFBwMBMIIJhQYDVR0RBIIJfDCCCXiCEXdlYi1wbGF0Zm9ybS50ZXN0ghV3
d3cud2ViLXBsYXRmb3JtLnRlc3SCFW5vdC13ZWItcGxhdGZvcm0udGVzdIIWd3d3
Mi53ZWItcGxhdGZvcm0udGVzdIIWd3d3MS53ZWItcGxhdGZvcm0udGVzdIIZd3d3
Lm5vdC13ZWItcGxhdGZvcm0udGVzdIIZd3d3Lnd3dy53ZWItcGxhdGZvcm0udGVz
dIIad3d3Mi53d3cud2ViLXBsYXRmb3JtLnRlc3SCGnd3dy53d3cyLndlYi1wbGF0
Zm9ybS50ZXN0ghp3d3cxLm5vdC13ZWItcGxhdGZvcm0udGVzdIIad3d3MS53d3cu
d2ViLXBsYXRmb3JtLnRlc3SCGnd3dzIubm90LXdlYi1wbGF0Zm9ybS50ZXN0ghp3
d3cud3d3MS53ZWItcGxhdGZvcm0udGVzdIIbd3d3MS53d3cxLndlYi1wbGF0Zm9y
bS50ZXN0ght3d3cyLnd3dzEud2ViLXBsYXRmb3JtLnRlc3SCG3d3dzIud3d3Mi53
ZWItcGxhdGZvcm0udGVzdIIbd3d3MS53d3cyLndlYi1wbGF0Zm9ybS50ZXN0gh13
d3cud3d3Lm5vdC13ZWItcGxhdGZvcm0udGVzdIIed3d3Mi53d3cubm90LXdlYi1w
bGF0Zm9ybS50ZXN0gh54bi0tbHZlLTZsYWQud2ViLXBsYXRmb3JtLnRlc3SCHnd3
dy53d3cxLm5vdC13ZWItcGxhdGZvcm0udGVzdIIed3d3MS53d3cubm90LXdlYi1w
bGF0Zm9ybS50ZXN0gh53d3cud3d3Mi5ub3Qtd2ViLXBsYXRmb3JtLnRlc3SCH3d3
dzEud3d3Mi5ub3Qtd2ViLXBsYXRmb3JtLnRlc3SCH3d3dzIud3d3MS5ub3Qtd2Vi
LXBsYXRmb3JtLnRlc3SCH3d3dzEud3d3MS5ub3Qtd2ViLXBsYXRmb3JtLnRlc3SC
H3d3dzIud3d3Mi5ub3Qtd2ViLXBsYXRmb3JtLnRlc3SCInhuLS1sdmUtNmxhZC5u
b3Qtd2ViLXBsYXRmb3JtLnRlc3SCInd3dy54bi0tbHZlLTZsYWQud2ViLXBsYXRm
b3JtLnRlc3SCInhuLS1sdmUtNmxhZC53d3cud2ViLXBsYXRmb3JtLnRlc3SCI3hu
LS1sdmUtNmxhZC53d3cyLndlYi1wbGF0Zm9ybS50ZXN0giN3d3cyLnhuLS1sdmUt
NmxhZC53ZWItcGxhdGZvcm0udGVzdIIjd3d3MS54bi0tbHZlLTZsYWQud2ViLXBs
YXRmb3JtLnRlc3SCI3huLS1sdmUtNmxhZC53d3cxLndlYi1wbGF0Zm9ybS50ZXN0
giZ3d3cueG4tLWx2ZS02bGFkLm5vdC13ZWItcGxhdGZvcm0udGVzdIImeG4tLWx2
ZS02bGFkLnd3dy5ub3Qtd2ViLXBsYXRmb3JtLnRlc3SCJ3d3dzEueG4tLWx2ZS02
bGFkLm5vdC13ZWItcGxhdGZvcm0udGVzdIInd3d3Mi54bi0tbHZlLTZsYWQubm90
LXdlYi1wbGF0Zm9ybS50ZXN0gid4bi0tbHZlLTZsYWQud3d3Mi5ub3Qtd2ViLXBs
YXRmb3JtLnRlc3SCJ3huLS1sdmUtNmxhZC53d3cxLm5vdC13ZWItcGxhdGZvcm0u
dGVzdIIpeG4tLW44ajZkczUzbHd3a3JxaHYyOGEud2ViLXBsYXRmb3JtLnRlc3SC
K3huLS1sdmUtNmxhZC54bi0tbHZlLTZsYWQud2ViLXBsYXRmb3JtLnRlc3SCLXd3
dy54bi0tbjhqNmRzNTNsd3drcnFodjI4YS53ZWItcGxhdGZvcm0udGVzdIIteG4t
LW44ajZkczUzbHd3a3JxaHYyOGEubm90LXdlYi1wbGF0Zm9ybS50ZXN0gi14bi0t
bjhqNmRzNTNsd3drcnFodjI4YS53d3cud2ViLXBsYXRmb3JtLnRlc3SCLnd3dzEu
eG4tLW44ajZkczUzbHd3a3JxaHYyOGEud2ViLXBsYXRmb3JtLnRlc3SCLnhuLS1u
OGo2ZHM1M2x3d2tycWh2MjhhLnd3dzIud2ViLXBsYXRmb3JtLnRlc3SCLnhuLS1u
OGo2ZHM1M2x3d2tycWh2MjhhLnd3dzEud2ViLXBsYXRmb3JtLnRlc3SCLnd3dzIu
eG4tLW44ajZkczUzbHd3a3JxaHYyOGEud2ViLXBsYXRmb3JtLnRlc3SCL3huLS1s
dmUtNmxhZC54bi0tbHZlLTZsYWQubm90LXdlYi1wbGF0Zm9ybS50ZXN0gjF4bi0t
bjhqNmRzNTNsd3drcnFodjI4YS53d3cubm90LXdlYi1wbGF0Zm9ybS50ZXN0gjF3
d3cueG4tLW44ajZkczUzbHd3a3JxaHYyOGEubm90LXdlYi1wbGF0Zm9ybS50ZXN0
gjJ4bi0tbjhqNmRzNTNsd3drcnFodjI4YS53d3cxLm5vdC13ZWItcGxhdGZvcm0u
dGVzdIIyeG4tLW44ajZkczUzbHd3a3JxaHYyOGEud3d3Mi5ub3Qtd2ViLXBsYXRm
b3JtLnRlc3SCMnd3dzEueG4tLW44ajZkczUzbHd3a3JxaHYyOGEubm90LXdlYi1w
bGF0Zm9ybS50ZXN0gjJ3d3cyLnhuLS1uOGo2ZHM1M2x3d2tycWh2MjhhLm5vdC13
ZWItcGxhdGZvcm0udGVzdII2eG4tLW44ajZkczUzbHd3a3JxaHYyOGEueG4tLWx2
ZS02bGFkLndlYi1wbGF0Zm9ybS50ZXN0gjZ4bi0tbHZlLTZsYWQueG4tLW44ajZk
czUzbHd3a3JxaHYyOGEud2ViLXBsYXRmb3JtLnRlc3SCOnhuLS1sdmUtNmxhZC54
bi0tbjhqNmRzNTNsd3drcnFodjI4YS5ub3Qtd2ViLXBsYXRmb3JtLnRlc3SCOnhu
LS1uOGo2ZHM1M2x3d2tycWh2MjhhLnhuLS1sdmUtNmxhZC5ub3Qtd2ViLXBsYXRm
b3JtLnRlc3SCQXhuLS1uOGo2ZHM1M2x3d2tycWh2MjhhLnhuLS1uOGo2ZHM1M2x3
d2tycWh2MjhhLndlYi1wbGF0Zm9ybS50ZXN0gkV4bi0tbjhqNmRzNTNsd3drcnFo
djI4YS54bi0tbjhqNmRzNTNsd3drcnFodjI4YS5ub3Qtd2ViLXBsYXRmb3JtLnRl
c3QwDQYJKoZIhvcNAQELBQADggEBAOC0063TOyc7tZ7ACA3nczQMOmSxmh0ccV2E
yrMibrNnkj2bUXlS8a/uvTBRIDGKkUTzWZCqrIqNeltZ9u9Mh4x1UJuQh6opo2Os
tzcjxxZq1o7Z4VlCFw+aezHAAAdfdklB/re2XX7KFCZzBbFijVrt7noubaWXuX0+
dsQ/Mw3QJWG02RkdMtb+lQ5gRkDv4N7WGsZODrIkzJ+M4CmEm0vTn06tQR1395m7
u9hGqNzbKrv+E4CDYzmFzzgdySw2GRV2XUsaDKkDDeXqnmKfkRe3FdYMK95u+3CR
Z1PUZnSmpXxD/9al+f474Bl3beTQAC0gdKrKv5kkj8oUf7NZ8cs=
-----END CERTIFICATE-----
