Certificate:
    Data:
        Version: 3 (0x2)
        Serial Number: 488516 (0x77444)
        Signature Algorithm: sha256WithRSAEncryption
        Issuer: CN=web-platform-tests
        Validity
            Not Before: Aug 12 01:19:05 2025 GMT
            Not After : Aug 12 01:19:05 2026 GMT
        Subject: CN=web-platform.test
        Subject Public Key Info:
            Public Key Algorithm: rsaEncryption
                Public-Key: (2048 bit)
                Modulus:
                    00:b8:66:34:a8:ab:9e:56:a3:b2:bf:c6:f0:4e:27:
                    57:fc:23:50:a5:10:e4:8a:41:5b:ca:3b:ae:98:04:
                    00:8b:83:f1:07:45:6e:16:df:cf:d4:65:b5:47:67:
                    3a:e5:d1:5e:e3:ac:a3:7d:9b:64:20:4f:20:c5:6f:
                    1f:46:09:6e:81:c8:7c:52:22:8a:64:27:61:ac:5e:
                    56:77:92:f6:12:60:0c:ee:68:dd:6a:a0:50:87:79:
                    4f:43:08:eb:1d:c2:3c:6e:c3:49:3a:46:f7:43:8b:
                    99:3c:32:72:b4:ec:cd:70:28:7b:d8:8f:b7:f5:a4:
                    93:0c:9e:59:3f:d3:e0:13:03:31:24:ec:05:97:b2:
                    47:67:5c:28:a0:da:0c:a2:f0:ff:fb:6b:f3:5d:96:
                    76:fa:36:bc:93:9a:1d:55:a1:a5:74:2e:f8:9e:92:
                    53:ea:1c:b8:f6:9a:f6:7b:be:49:cf:ed:e8:6d:2b:
                    7f:6d:d3:24:25:88:9b:c2:b9:de:1f:ff:c7:63:27:
                    46:da:5b:2b:4b:bb:ab:17:e5:93:be:fb:d5:65:f8:
                    24:8b:ab:11:75:aa:70:ff:7e:12:08:99:ab:8c:09:
                    c3:c4:4c:22:38:c3:3b:9a:dd:95:18:7d:d5:70:7f:
                    85:9b:9a:58:3c:69:be:09:3e:b7:31:31:25:18:20:
                    b3:f3
                Exponent: 65537 (0x10001)
        X509v3 extensions:
            X509v3 Basic Constraints: 
                CA:FALSE
            X509v3 Subject Key Identifier: 
                F7:AE:2D:DD:A2:39:63:DF:7B:C2:C5:3A:55:E0:E3:A5:51:52:F6:CE
            X509v3 Authority Key Identifier: 
                4B:5D:7F:C2:59:48:DF:CB:D2:CC:F9:B1:CA:25:5A:FB:DE:37:DD:AA
            X509v3 Key Usage: 
                Digital Signature, Non Repudiation, Key Encipherment
            X509v3 Extended Key Usage: 
                TLS Web Server Authentication
            X509v3 Subject Alternative Name: 
                DNS:web-platform.test, DNS:not-web-platform.test, DNS:www.web-platform.test, DNS:www1.web-platform.test, DNS:www2.web-platform.test, DNS:www.not-web-platform.test, DNS:www.www.web-platform.test, DNS:www.www2.web-platform.test, DNS:www2.www.web-platform.test, DNS:www1.www.web-platform.test, DNS:www2.not-web-platform.test, DNS:www.www1.web-platform.test, DNS:www1.not-web-platform.test, DNS:www1.www1.web-platform.test, DNS:www2.www2.web-platform.test, DNS:www1.www2.web-platform.test, DNS:www2.www1.web-platform.test, DNS:www.www.not-web-platform.test, DNS:www2.www.not-web-platform.test, DNS:www.www2.not-web-platform.test, DNS:xn--lve-6lad.web-platform.test, DNS:www1.www.not-web-platform.test, DNS:www.www1.not-web-platform.test, DNS:www2.www1.not-web-platform.test, DNS:www1.www1.not-web-platform.test, DNS:www1.www2.not-web-platform.test, DNS:www2.www2.not-web-platform.test, DNS:xn--lve-6lad.not-web-platform.test, DNS:xn--lve-6lad.www.web-platform.test, DNS:www.xn--lve-6lad.web-platform.test, DNS:xn--lve-6lad.www2.web-platform.test, DNS:www2.xn--lve-6lad.web-platform.test, DNS:www1.xn--lve-6lad.web-platform.test, DNS:xn--lve-6lad.www1.web-platform.test, DNS:www.xn--lve-6lad.not-web-platform.test, DNS:xn--lve-6lad.www.not-web-platform.test, DNS:xn--lve-6lad.www2.not-web-platform.test, DNS:www1.xn--lve-6lad.not-web-platform.test, DNS:www2.xn--lve-6lad.not-web-platform.test, DNS:xn--lve-6lad.www1.not-web-platform.test, DNS:xn--n8j6ds53lwwkrqhv28a.web-platform.test, DNS:xn--lve-6lad.xn--lve-6lad.web-platform.test, DNS:www.xn--n8j6ds53lwwkrqhv28a.web-platform.test, DNS:xn--n8j6ds53lwwkrqhv28a.www.web-platform.test, DNS:xn--n8j6ds53lwwkrqhv28a.not-web-platform.test, DNS:www2.xn--n8j6ds53lwwkrqhv28a.web-platform.test, DNS:xn--n8j6ds53lwwkrqhv28a.www2.web-platform.test, DNS:xn--n8j6ds53lwwkrqhv28a.www1.web-platform.test, DNS:www1.xn--n8j6ds53lwwkrqhv28a.web-platform.test, DNS:xn--lve-6lad.xn--lve-6lad.not-web-platform.test, DNS:www.xn--n8j6ds53lwwkrqhv28a.not-web-platform.test, DNS:xn--n8j6ds53lwwkrqhv28a.www.not-web-platform.test, DNS:xn--n8j6ds53lwwkrqhv28a.www2.not-web-platform.test, DNS:www1.xn--n8j6ds53lwwkrqhv28a.not-web-platform.test, DNS:xn--n8j6ds53lwwkrqhv28a.www1.not-web-platform.test, DNS:www2.xn--n8j6ds53lwwkrqhv28a.not-web-platform.test, DNS:xn--lve-6lad.xn--n8j6ds53lwwkrqhv28a.web-platform.test, DNS:xn--n8j6ds53lwwkrqhv28a.xn--lve-6lad.web-platform.test, DNS:xn--lve-6lad.xn--n8j6ds53lwwkrqhv28a.not-web-platform.test, DNS:xn--n8j6ds53lwwkrqhv28a.xn--lve-6lad.not-web-platform.test, DNS:xn--n8j6ds53lwwkrqhv28a.xn--n8j6ds53lwwkrqhv28a.web-platform.test, DNS:xn--n8j6ds53lwwkrqhv28a.xn--n8j6ds53lwwkrqhv28a.not-web-platform.test
    Signature Algorithm: sha256WithRSAEncryption
    Signature Value:
        36:38:e0:21:59:80:2b:b2:e3:eb:6d:f9:68:b7:7a:94:94:22:
        9f:38:6d:70:df:59:f1:55:19:b6:1b:91:62:78:d8:3a:3b:42:
        8b:9e:3c:7e:dc:b3:12:a8:0e:51:5b:25:58:cb:13:20:cf:1b:
        f3:66:47:93:11:7b:84:62:09:92:aa:a6:b3:18:71:41:69:a2:
        5a:67:58:5b:af:40:ac:28:9d:77:51:68:ac:32:7d:84:a7:d3:
        af:01:f4:3b:c1:99:d4:70:5f:6f:b9:01:75:00:a0:82:4e:30:
        d2:d7:d8:77:c6:8e:e9:de:98:8d:bd:ad:c9:f6:6b:08:df:c7:
        1d:ad:2d:b1:38:3e:3a:03:dd:d4:da:a1:40:db:c1:3c:3a:be:
        3b:03:15:fc:be:13:27:5a:4f:03:5b:8b:17:77:ea:c2:a5:eb:
        1f:fc:59:4a:88:38:ab:06:51:6f:4a:95:71:09:5f:be:b6:bb:
        10:01:2a:a9:11:da:a8:d6:b4:2a:8f:9e:fa:1e:26:a3:ac:18:
        86:f3:e5:4b:27:8f:b8:46:cc:84:f1:60:fc:a4:20:52:c2:39:
        6b:47:5b:f0:48:ca:77:81:5a:ab:01:61:eb:e5:a8:56:03:7e:
        90:cf:d9:17:e8:9e:4b:77:54:c3:ad:e4:da:ab:33:9a:5e:e1:
        d1:0a:90:52
-----BEGIN CERTIFICATE-----
MIIMsjCCC5qgAwIBAgIDB3REMA0GCSqGSIb3DQEBCwUAMB0xGzAZBgNVBAMMEndl
Yi1wbGF0Zm9ybS10ZXN0czAeFw0yNTA4MTIwMTE5MDVaFw0yNjA4MTIwMTE5MDVa
MBwxGjAYBgNVBAMMEXdlYi1wbGF0Zm9ybS50ZXN0MIIBIjANBgkqhkiG9w0BAQEF
AAOCAQ8AMIIBCgKCAQEAuGY0qKueVqOyv8bwTidX/CNQpRDkikFbyjuumAQAi4Px
B0VuFt/P1GW1R2c65dFe46yjfZtkIE8gxW8fRglugch8UiKKZCdhrF5Wd5L2EmAM
7mjdaqBQh3lPQwjrHcI8bsNJOkb3Q4uZPDJytOzNcCh72I+39aSTDJ5ZP9PgEwMx
JOwFl7JHZ1wooNoMovD/+2vzXZZ2+ja8k5odVaGldC74npJT6hy49pr2e75Jz+3o
bSt/bdMkJYibwrneH//HYydG2lsrS7urF+WTvvvVZfgki6sRdapw/34SCJmrjAnD
xEwiOMM7mt2VGH3VcH+Fm5pYPGm+CT63MTElGCCz8wIDAQABo4IJ+jCCCfYwCQYD
VR0TBAIwADAdBgNVHQ4EFgQU964t3aI5Y997wsU6VeDjpVFS9s4wHwYDVR0jBBgw
FoAUS11/wllI38vSzPmxyiVa+9433aowCwYDVR0PBAQDAgXgMBMGA1UdJQQMMAoG
CCsGAQUFBwMBMIIJhQYDVR0RBIIJfDCCCXiCEXdlYi1wbGF0Zm9ybS50ZXN0ghVu
b3Qtd2ViLXBsYXRmb3JtLnRlc3SCFXd3dy53ZWItcGxhdGZvcm0udGVzdIIWd3d3
MS53ZWItcGxhdGZvcm0udGVzdIIWd3d3Mi53ZWItcGxhdGZvcm0udGVzdIIZd3d3
Lm5vdC13ZWItcGxhdGZvcm0udGVzdIIZd3d3Lnd3dy53ZWItcGxhdGZvcm0udGVz
dIIad3d3Lnd3dzIud2ViLXBsYXRmb3JtLnRlc3SCGnd3dzIud3d3LndlYi1wbGF0
Zm9ybS50ZXN0ghp3d3cxLnd3dy53ZWItcGxhdGZvcm0udGVzdIIad3d3Mi5ub3Qt
d2ViLXBsYXRmb3JtLnRlc3SCGnd3dy53d3cxLndlYi1wbGF0Zm9ybS50ZXN0ghp3
d3cxLm5vdC13ZWItcGxhdGZvcm0udGVzdIIbd3d3MS53d3cxLndlYi1wbGF0Zm9y
bS50ZXN0ght3d3cyLnd3dzIud2ViLXBsYXRmb3JtLnRlc3SCG3d3dzEud3d3Mi53
ZWItcGxhdGZvcm0udGVzdIIbd3d3Mi53d3cxLndlYi1wbGF0Zm9ybS50ZXN0gh13
d3cud3d3Lm5vdC13ZWItcGxhdGZvcm0udGVzdIIed3d3Mi53d3cubm90LXdlYi1w
bGF0Zm9ybS50ZXN0gh53d3cud3d3Mi5ub3Qtd2ViLXBsYXRmb3JtLnRlc3SCHnhu
LS1sdmUtNmxhZC53ZWItcGxhdGZvcm0udGVzdIIed3d3MS53d3cubm90LXdlYi1w
bGF0Zm9ybS50ZXN0gh53d3cud3d3MS5ub3Qtd2ViLXBsYXRmb3JtLnRlc3SCH3d3
dzIud3d3MS5ub3Qtd2ViLXBsYXRmb3JtLnRlc3SCH3d3dzEud3d3MS5ub3Qtd2Vi
LXBsYXRmb3JtLnRlc3SCH3d3dzEud3d3Mi5ub3Qtd2ViLXBsYXRmb3JtLnRlc3SC
H3d3dzIud3d3Mi5ub3Qtd2ViLXBsYXRmb3JtLnRlc3SCInhuLS1sdmUtNmxhZC5u
b3Qtd2ViLXBsYXRmb3JtLnRlc3SCInhuLS1sdmUtNmxhZC53d3cud2ViLXBsYXRm
b3JtLnRlc3SCInd3dy54bi0tbHZlLTZsYWQud2ViLXBsYXRmb3JtLnRlc3SCI3hu
LS1sdmUtNmxhZC53d3cyLndlYi1wbGF0Zm9ybS50ZXN0giN3d3cyLnhuLS1sdmUt
NmxhZC53ZWItcGxhdGZvcm0udGVzdIIjd3d3MS54bi0tbHZlLTZsYWQud2ViLXBs
YXRmb3JtLnRlc3SCI3huLS1sdmUtNmxhZC53d3cxLndlYi1wbGF0Zm9ybS50ZXN0
giZ3d3cueG4tLWx2ZS02bGFkLm5vdC13ZWItcGxhdGZvcm0udGVzdIImeG4tLWx2
ZS02bGFkLnd3dy5ub3Qtd2ViLXBsYXRmb3JtLnRlc3SCJ3huLS1sdmUtNmxhZC53
d3cyLm5vdC13ZWItcGxhdGZvcm0udGVzdIInd3d3MS54bi0tbHZlLTZsYWQubm90
LXdlYi1wbGF0Zm9ybS50ZXN0gid3d3cyLnhuLS1sdmUtNmxhZC5ub3Qtd2ViLXBs
YXRmb3JtLnRlc3SCJ3huLS1sdmUtNmxhZC53d3cxLm5vdC13ZWItcGxhdGZvcm0u
dGVzdIIpeG4tLW44ajZkczUzbHd3a3JxaHYyOGEud2ViLXBsYXRmb3JtLnRlc3SC
K3huLS1sdmUtNmxhZC54bi0tbHZlLTZsYWQud2ViLXBsYXRmb3JtLnRlc3SCLXd3
dy54bi0tbjhqNmRzNTNsd3drcnFodjI4YS53ZWItcGxhdGZvcm0udGVzdIIteG4t
LW44ajZkczUzbHd3a3JxaHYyOGEud3d3LndlYi1wbGF0Zm9ybS50ZXN0gi14bi0t
bjhqNmRzNTNsd3drcnFodjI4YS5ub3Qtd2ViLXBsYXRmb3JtLnRlc3SCLnd3dzIu
eG4tLW44ajZkczUzbHd3a3JxaHYyOGEud2ViLXBsYXRmb3JtLnRlc3SCLnhuLS1u
OGo2ZHM1M2x3d2tycWh2MjhhLnd3dzIud2ViLXBsYXRmb3JtLnRlc3SCLnhuLS1u
OGo2ZHM1M2x3d2tycWh2MjhhLnd3dzEud2ViLXBsYXRmb3JtLnRlc3SCLnd3dzEu
eG4tLW44ajZkczUzbHd3a3JxaHYyOGEud2ViLXBsYXRmb3JtLnRlc3SCL3huLS1s
dmUtNmxhZC54bi0tbHZlLTZsYWQubm90LXdlYi1wbGF0Zm9ybS50ZXN0gjF3d3cu
eG4tLW44ajZkczUzbHd3a3JxaHYyOGEubm90LXdlYi1wbGF0Zm9ybS50ZXN0gjF4
bi0tbjhqNmRzNTNsd3drcnFodjI4YS53d3cubm90LXdlYi1wbGF0Zm9ybS50ZXN0
gjJ4bi0tbjhqNmRzNTNsd3drcnFodjI4YS53d3cyLm5vdC13ZWItcGxhdGZvcm0u
dGVzdIIyd3d3MS54bi0tbjhqNmRzNTNsd3drcnFodjI4YS5ub3Qtd2ViLXBsYXRm
b3JtLnRlc3SCMnhuLS1uOGo2ZHM1M2x3d2tycWh2MjhhLnd3dzEubm90LXdlYi1w
bGF0Zm9ybS50ZXN0gjJ3d3cyLnhuLS1uOGo2ZHM1M2x3d2tycWh2MjhhLm5vdC13
ZWItcGxhdGZvcm0udGVzdII2eG4tLWx2ZS02bGFkLnhuLS1uOGo2ZHM1M2x3d2ty
cWh2MjhhLndlYi1wbGF0Zm9ybS50ZXN0gjZ4bi0tbjhqNmRzNTNsd3drcnFodjI4
YS54bi0tbHZlLTZsYWQud2ViLXBsYXRmb3JtLnRlc3SCOnhuLS1sdmUtNmxhZC54
bi0tbjhqNmRzNTNsd3drcnFodjI4YS5ub3Qtd2ViLXBsYXRmb3JtLnRlc3SCOnhu
LS1uOGo2ZHM1M2x3d2tycWh2MjhhLnhuLS1sdmUtNmxhZC5ub3Qtd2ViLXBsYXRm
b3JtLnRlc3SCQXhuLS1uOGo2ZHM1M2x3d2tycWh2MjhhLnhuLS1uOGo2ZHM1M2x3
d2tycWh2MjhhLndlYi1wbGF0Zm9ybS50ZXN0gkV4bi0tbjhqNmRzNTNsd3drcnFo
djI4YS54bi0tbjhqNmRzNTNsd3drcnFodjI4YS5ub3Qtd2ViLXBsYXRmb3JtLnRl
c3QwDQYJKoZIhvcNAQELBQADggEBADY44CFZgCuy4+tt+Wi3epSUIp84bXDfWfFV
GbYbkWJ42Do7QouePH7csxKoDlFbJVjLEyDPG/NmR5MRe4RiCZKqprMYcUFpolpn
WFuvQKwonXdRaKwyfYSn068B9DvBmdRwX2+5AXUAoIJOMNLX2HfGjunemI29rcn2
awjfxx2tLbE4PjoD3dTaoUDbwTw6vjsDFfy+EydaTwNbixd36sKl6x/8WUqIOKsG
UW9KlXEJX762uxABKqkR2qjWtCqPnvoeJqOsGIbz5Usnj7hGzITxYPykIFLCOWtH
W/BIyneBWqsBYevlqFYDfpDP2Rfonkt3VMOt5NqrM5pe4dEKkFI=
-----END CERTIFICATE-----
