Certificate:
    Data:
        Version: 3 (0x2)
        Serial Number: 521679 (0x7f5cf)
        Signature Algorithm: sha256WithRSAEncryption
        Issuer: CN=web-platform-tests
        Validity
            Not Before: Jul 12 00:57:35 2024 GMT
            Not After : Jul 12 00:57:35 2025 GMT
        Subject: CN=web-platform.test
        Subject Public Key Info:
            Public Key Algorithm: rsaEncryption
                RSA Public-Key: (2048 bit)
                Modulus:
                    00:d3:0f:f7:60:d2:fd:b5:cf:d0:8b:c3:28:54:17:
                    0c:de:a5:66:96:8a:43:8c:0c:bf:a1:96:49:7d:30:
                    e3:ad:77:6e:5f:d5:89:48:b9:b8:f7:d7:34:a9:e3:
                    53:18:c9:91:2b:91:13:4e:c9:2c:f7:48:51:50:20:
                    92:73:8f:18:9a:3d:fe:3f:e2:58:63:83:14:dc:8e:
                    d8:50:a6:6a:1e:50:a8:aa:cd:b6:77:2a:84:19:35:
                    b2:6b:f3:90:94:bc:c3:91:f2:b9:73:57:fb:ab:b2:
                    5e:76:9b:d7:51:60:39:7b:f2:9a:2a:a5:97:90:29:
                    d0:71:af:a8:db:e8:0c:db:ea:b3:cb:ff:a6:54:7b:
                    dc:c9:a3:bc:3e:e5:72:85:15:8e:43:14:8c:77:f6:
                    49:95:8e:60:09:f1:c9:b6:c2:18:df:af:8e:42:72:
                    fc:bf:f6:c8:7e:80:55:37:2b:47:24:3c:29:76:76:
                    d9:9e:82:19:84:6d:e4:b4:4f:84:4d:09:e7:cb:7e:
                    88:7f:ae:b2:4f:22:61:14:2c:83:c5:f0:32:ed:c0:
                    02:07:1c:10:6d:db:3b:36:f4:47:69:40:87:52:d7:
                    1b:ff:7c:3f:bb:b5:e2:9d:90:6e:bb:51:90:e9:27:
                    f1:b6:39:cb:b1:3a:9e:98:75:8f:e7:28:63:84:31:
                    3e:af
                Exponent: 65537 (0x10001)
        X509v3 extensions:
            X509v3 Basic Constraints: 
                CA:FALSE
            X509v3 Subject Key Identifier: 
                EB:F5:DC:54:25:C1:0E:D1:0E:54:62:0C:B1:CD:FF:BE:97:E3:2D:64
            X509v3 Authority Key Identifier: 
                keyid:77:6C:44:7D:2E:6E:58:7B:52:DD:44:DB:FC:C3:16:4D:39:E3:AB:C8

            X509v3 Key Usage: 
                Digital Signature, Non Repudiation, Key Encipherment
            X509v3 Extended Key Usage: 
                TLS Web Server Authentication
            X509v3 Subject Alternative Name: 
                DNS:web-platform.test, DNS:www.web-platform.test, DNS:not-web-platform.test, DNS:www1.web-platform.test, DNS:www2.web-platform.test, DNS:www.not-web-platform.test, DNS:www.www.web-platform.test, DNS:www.www1.web-platform.test, DNS:www.www2.web-platform.test, DNS:www2.not-web-platform.test, DNS:www1.not-web-platform.test, DNS:www1.www.web-platform.test, DNS:www2.www.web-platform.test, DNS:www2.www1.web-platform.test, DNS:www2.www2.web-platform.test, DNS:www1.www2.web-platform.test, DNS:www1.www1.web-platform.test, DNS:www.www.not-web-platform.test, DNS:www2.www.not-web-platform.test, DNS:www.www2.not-web-platform.test, DNS:xn--lve-6lad.web-platform.test, DNS:www.www1.not-web-platform.test, DNS:www1.www.not-web-platform.test, DNS:www2.www1.not-web-platform.test, DNS:www2.www2.not-web-platform.test, DNS:www1.www1.not-web-platform.test, DNS:www1.www2.not-web-platform.test, DNS:xn--lve-6lad.www.web-platform.test, DNS:xn--lve-6lad.not-web-platform.test, DNS:www.xn--lve-6lad.web-platform.test, DNS:www2.xn--lve-6lad.web-platform.test, DNS:www1.xn--lve-6lad.web-platform.test, DNS:xn--lve-6lad.www1.web-platform.test, DNS:xn--lve-6lad.www2.web-platform.test, DNS:www.xn--lve-6lad.not-web-platform.test, DNS:xn--lve-6lad.www.not-web-platform.test, DNS:www2.xn--lve-6lad.not-web-platform.test, DNS:xn--lve-6lad.www2.not-web-platform.test, DNS:www1.xn--lve-6lad.not-web-platform.test, DNS:xn--lve-6lad.www1.not-web-platform.test, DNS:xn--n8j6ds53lwwkrqhv28a.web-platform.test, DNS:xn--lve-6lad.xn--lve-6lad.web-platform.test, DNS:xn--n8j6ds53lwwkrqhv28a.not-web-platform.test, DNS:xn--n8j6ds53lwwkrqhv28a.www.web-platform.test, DNS:www.xn--n8j6ds53lwwkrqhv28a.web-platform.test, DNS:www1.xn--n8j6ds53lwwkrqhv28a.web-platform.test, DNS:www2.xn--n8j6ds53lwwkrqhv28a.web-platform.test, DNS:xn--n8j6ds53lwwkrqhv28a.www2.web-platform.test, DNS:xn--n8j6ds53lwwkrqhv28a.www1.web-platform.test, DNS:xn--lve-6lad.xn--lve-6lad.not-web-platform.test, DNS:xn--n8j6ds53lwwkrqhv28a.www.not-web-platform.test, DNS:www.xn--n8j6ds53lwwkrqhv28a.not-web-platform.test, DNS:www2.xn--n8j6ds53lwwkrqhv28a.not-web-platform.test, DNS:xn--n8j6ds53lwwkrqhv28a.www2.not-web-platform.test, DNS:www1.xn--n8j6ds53lwwkrqhv28a.not-web-platform.test, DNS:xn--n8j6ds53lwwkrqhv28a.www1.not-web-platform.test, DNS:xn--n8j6ds53lwwkrqhv28a.xn--lve-6lad.web-platform.test, DNS:xn--lve-6lad.xn--n8j6ds53lwwkrqhv28a.web-platform.test, DNS:xn--n8j6ds53lwwkrqhv28a.xn--lve-6lad.not-web-platform.test, DNS:xn--lve-6lad.xn--n8j6ds53lwwkrqhv28a.not-web-platform.test, DNS:xn--n8j6ds53lwwkrqhv28a.xn--n8j6ds53lwwkrqhv28a.web-platform.test, DNS:xn--n8j6ds53lwwkrqhv28a.xn--n8j6ds53lwwkrqhv28a.not-web-platform.test
    Signature Algorithm: sha256WithRSAEncryption
         26:15:33:d3:2b:2d:ae:8f:d0:55:e7:bf:7f:12:b4:28:5f:c6:
         ac:44:b4:9a:35:e6:66:98:34:df:5e:29:f1:6a:af:4c:3c:1e:
         03:c5:09:45:fb:6f:30:7b:ed:83:d3:4a:df:e9:e2:cd:02:5e:
         e1:ef:94:8e:6b:c0:82:e6:91:2d:1c:25:ef:96:68:fc:79:41:
         b9:b6:01:41:e1:44:d4:22:e2:00:e1:1d:ef:05:35:e7:e4:ca:
         ee:4f:3b:77:ba:94:36:d8:fd:93:2f:09:0d:d9:c0:cb:81:c9:
         07:73:1e:fd:39:ac:93:2a:4a:0f:ab:8a:8f:e5:36:78:6e:93:
         74:24:62:89:2e:c5:94:84:84:bf:f1:9c:74:98:d6:a4:88:99:
         b5:b7:03:2f:a3:16:5c:96:05:6c:fd:07:84:7d:a3:34:f5:bf:
         8f:0a:4e:81:23:be:46:b7:dd:72:36:3a:41:cb:ad:ae:79:2e:
         c5:d2:6a:2f:99:63:1f:69:ee:59:d4:b4:59:2a:84:32:c4:f6:
         37:3f:d1:1d:a4:14:be:45:3f:d1:ff:39:4f:64:41:23:2b:5f:
         e1:20:07:78:26:95:5f:75:42:eb:48:81:e7:74:2b:e2:fa:1c:
         26:49:a8:67:da:2c:12:80:cd:b8:c1:91:cf:89:03:4c:ed:c2:
         76:2d:c3:0f
-----BEGIN CERTIFICATE-----
MIIMsjCCC5qgAwIBAgIDB/XPMA0GCSqGSIb3DQEBCwUAMB0xGzAZBgNVBAMMEndl
Yi1wbGF0Zm9ybS10ZXN0czAeFw0yNDA3MTIwMDU3MzVaFw0yNTA3MTIwMDU3MzVa
MBwxGjAYBgNVBAMMEXdlYi1wbGF0Zm9ybS50ZXN0MIIBIjANBgkqhkiG9w0BAQEF
AAOCAQ8AMIIBCgKCAQEA0w/3YNL9tc/Qi8MoVBcM3qVmlopDjAy/oZZJfTDjrXdu
X9WJSLm499c0qeNTGMmRK5ETTsks90hRUCCSc48Ymj3+P+JYY4MU3I7YUKZqHlCo
qs22dyqEGTWya/OQlLzDkfK5c1f7q7JedpvXUWA5e/KaKqWXkCnQca+o2+gM2+qz
y/+mVHvcyaO8PuVyhRWOQxSMd/ZJlY5gCfHJtsIY36+OQnL8v/bIfoBVNytHJDwp
dnbZnoIZhG3ktE+ETQnny36If66yTyJhFCyDxfAy7cACBxwQbds7NvRHaUCHUtcb
/3w/u7XinZBuu1GQ6SfxtjnLsTqemHWP5yhjhDE+rwIDAQABo4IJ+jCCCfYwCQYD
VR0TBAIwADAdBgNVHQ4EFgQU6/XcVCXBDtEOVGIMsc3/vpfjLWQwHwYDVR0jBBgw
FoAUd2xEfS5uWHtS3UTb/MMWTTnjq8gwCwYDVR0PBAQDAgXgMBMGA1UdJQQMMAoG
CCsGAQUFBwMBMIIJhQYDVR0RBIIJfDCCCXiCEXdlYi1wbGF0Zm9ybS50ZXN0ghV3
d3cud2ViLXBsYXRmb3JtLnRlc3SCFW5vdC13ZWItcGxhdGZvcm0udGVzdIIWd3d3
MS53ZWItcGxhdGZvcm0udGVzdIIWd3d3Mi53ZWItcGxhdGZvcm0udGVzdIIZd3d3
Lm5vdC13ZWItcGxhdGZvcm0udGVzdIIZd3d3Lnd3dy53ZWItcGxhdGZvcm0udGVz
dIIad3d3Lnd3dzEud2ViLXBsYXRmb3JtLnRlc3SCGnd3dy53d3cyLndlYi1wbGF0
Zm9ybS50ZXN0ghp3d3cyLm5vdC13ZWItcGxhdGZvcm0udGVzdIIad3d3MS5ub3Qt
d2ViLXBsYXRmb3JtLnRlc3SCGnd3dzEud3d3LndlYi1wbGF0Zm9ybS50ZXN0ghp3
d3cyLnd3dy53ZWItcGxhdGZvcm0udGVzdIIbd3d3Mi53d3cxLndlYi1wbGF0Zm9y
bS50ZXN0ght3d3cyLnd3dzIud2ViLXBsYXRmb3JtLnRlc3SCG3d3dzEud3d3Mi53
ZWItcGxhdGZvcm0udGVzdIIbd3d3MS53d3cxLndlYi1wbGF0Zm9ybS50ZXN0gh13
d3cud3d3Lm5vdC13ZWItcGxhdGZvcm0udGVzdIIed3d3Mi53d3cubm90LXdlYi1w
bGF0Zm9ybS50ZXN0gh53d3cud3d3Mi5ub3Qtd2ViLXBsYXRmb3JtLnRlc3SCHnhu
LS1sdmUtNmxhZC53ZWItcGxhdGZvcm0udGVzdIIed3d3Lnd3dzEubm90LXdlYi1w
bGF0Zm9ybS50ZXN0gh53d3cxLnd3dy5ub3Qtd2ViLXBsYXRmb3JtLnRlc3SCH3d3
dzIud3d3MS5ub3Qtd2ViLXBsYXRmb3JtLnRlc3SCH3d3dzIud3d3Mi5ub3Qtd2Vi
LXBsYXRmb3JtLnRlc3SCH3d3dzEud3d3MS5ub3Qtd2ViLXBsYXRmb3JtLnRlc3SC
H3d3dzEud3d3Mi5ub3Qtd2ViLXBsYXRmb3JtLnRlc3SCInhuLS1sdmUtNmxhZC53
d3cud2ViLXBsYXRmb3JtLnRlc3SCInhuLS1sdmUtNmxhZC5ub3Qtd2ViLXBsYXRm
b3JtLnRlc3SCInd3dy54bi0tbHZlLTZsYWQud2ViLXBsYXRmb3JtLnRlc3SCI3d3
dzIueG4tLWx2ZS02bGFkLndlYi1wbGF0Zm9ybS50ZXN0giN3d3cxLnhuLS1sdmUt
NmxhZC53ZWItcGxhdGZvcm0udGVzdIIjeG4tLWx2ZS02bGFkLnd3dzEud2ViLXBs
YXRmb3JtLnRlc3SCI3huLS1sdmUtNmxhZC53d3cyLndlYi1wbGF0Zm9ybS50ZXN0
giZ3d3cueG4tLWx2ZS02bGFkLm5vdC13ZWItcGxhdGZvcm0udGVzdIImeG4tLWx2
ZS02bGFkLnd3dy5ub3Qtd2ViLXBsYXRmb3JtLnRlc3SCJ3d3dzIueG4tLWx2ZS02
bGFkLm5vdC13ZWItcGxhdGZvcm0udGVzdIIneG4tLWx2ZS02bGFkLnd3dzIubm90
LXdlYi1wbGF0Zm9ybS50ZXN0gid3d3cxLnhuLS1sdmUtNmxhZC5ub3Qtd2ViLXBs
YXRmb3JtLnRlc3SCJ3huLS1sdmUtNmxhZC53d3cxLm5vdC13ZWItcGxhdGZvcm0u
dGVzdIIpeG4tLW44ajZkczUzbHd3a3JxaHYyOGEud2ViLXBsYXRmb3JtLnRlc3SC
K3huLS1sdmUtNmxhZC54bi0tbHZlLTZsYWQud2ViLXBsYXRmb3JtLnRlc3SCLXhu
LS1uOGo2ZHM1M2x3d2tycWh2MjhhLm5vdC13ZWItcGxhdGZvcm0udGVzdIIteG4t
LW44ajZkczUzbHd3a3JxaHYyOGEud3d3LndlYi1wbGF0Zm9ybS50ZXN0gi13d3cu
eG4tLW44ajZkczUzbHd3a3JxaHYyOGEud2ViLXBsYXRmb3JtLnRlc3SCLnd3dzEu
eG4tLW44ajZkczUzbHd3a3JxaHYyOGEud2ViLXBsYXRmb3JtLnRlc3SCLnd3dzIu
eG4tLW44ajZkczUzbHd3a3JxaHYyOGEud2ViLXBsYXRmb3JtLnRlc3SCLnhuLS1u
OGo2ZHM1M2x3d2tycWh2MjhhLnd3dzIud2ViLXBsYXRmb3JtLnRlc3SCLnhuLS1u
OGo2ZHM1M2x3d2tycWh2MjhhLnd3dzEud2ViLXBsYXRmb3JtLnRlc3SCL3huLS1s
dmUtNmxhZC54bi0tbHZlLTZsYWQubm90LXdlYi1wbGF0Zm9ybS50ZXN0gjF4bi0t
bjhqNmRzNTNsd3drcnFodjI4YS53d3cubm90LXdlYi1wbGF0Zm9ybS50ZXN0gjF3
d3cueG4tLW44ajZkczUzbHd3a3JxaHYyOGEubm90LXdlYi1wbGF0Zm9ybS50ZXN0
gjJ3d3cyLnhuLS1uOGo2ZHM1M2x3d2tycWh2MjhhLm5vdC13ZWItcGxhdGZvcm0u
dGVzdIIyeG4tLW44ajZkczUzbHd3a3JxaHYyOGEud3d3Mi5ub3Qtd2ViLXBsYXRm
b3JtLnRlc3SCMnd3dzEueG4tLW44ajZkczUzbHd3a3JxaHYyOGEubm90LXdlYi1w
bGF0Zm9ybS50ZXN0gjJ4bi0tbjhqNmRzNTNsd3drcnFodjI4YS53d3cxLm5vdC13
ZWItcGxhdGZvcm0udGVzdII2eG4tLW44ajZkczUzbHd3a3JxaHYyOGEueG4tLWx2
ZS02bGFkLndlYi1wbGF0Zm9ybS50ZXN0gjZ4bi0tbHZlLTZsYWQueG4tLW44ajZk
czUzbHd3a3JxaHYyOGEud2ViLXBsYXRmb3JtLnRlc3SCOnhuLS1uOGo2ZHM1M2x3
d2tycWh2MjhhLnhuLS1sdmUtNmxhZC5ub3Qtd2ViLXBsYXRmb3JtLnRlc3SCOnhu
LS1sdmUtNmxhZC54bi0tbjhqNmRzNTNsd3drcnFodjI4YS5ub3Qtd2ViLXBsYXRm
b3JtLnRlc3SCQXhuLS1uOGo2ZHM1M2x3d2tycWh2MjhhLnhuLS1uOGo2ZHM1M2x3
d2tycWh2MjhhLndlYi1wbGF0Zm9ybS50ZXN0gkV4bi0tbjhqNmRzNTNsd3drcnFo
djI4YS54bi0tbjhqNmRzNTNsd3drcnFodjI4YS5ub3Qtd2ViLXBsYXRmb3JtLnRl
c3QwDQYJKoZIhvcNAQELBQADggEBACYVM9MrLa6P0FXnv38StChfxqxEtJo15maY
NN9eKfFqr0w8HgPFCUX7bzB77YPTSt/p4s0CXuHvlI5rwILmkS0cJe+WaPx5Qbm2
AUHhRNQi4gDhHe8FNefkyu5PO3e6lDbY/ZMvCQ3ZwMuByQdzHv05rJMqSg+rio/l
Nnhuk3QkYokuxZSEhL/xnHSY1qSImbW3Ay+jFlyWBWz9B4R9ozT1v48KToEjvka3
3XI2OkHLra55LsXSai+ZYx9p7lnUtFkqhDLE9jc/0R2kFL5FP9H/OU9kQSMrX+Eg
B3gmlV91QutIged0K+L6HCZJqGfaLBKAzbjBkc+JA0ztwnYtww8=
-----END CERTIFICATE-----
