Certificate:
    Data:
        Version: 3 (0x2)
        Serial Number: 199182 (0x30a0e)
        Signature Algorithm: sha256WithRSAEncryption
        Issuer: CN=web-platform-tests
        Validity
            Not Before: May 12 01:19:23 2025 GMT
            Not After : May 12 01:19:23 2026 GMT
        Subject: CN=web-platform.test
        Subject Public Key Info:
            Public Key Algorithm: rsaEncryption
                Public-Key: (2048 bit)
                Modulus:
                    00:a4:d0:f3:8f:17:bb:e7:6e:71:bb:b6:57:f4:aa:
                    59:6a:0b:ce:36:5f:f8:14:a4:69:41:7a:d7:77:7b:
                    6a:46:04:7b:fa:78:50:80:b7:be:13:aa:18:fe:67:
                    5d:1c:a4:7f:bb:2a:21:15:df:13:64:ff:07:db:46:
                    48:93:6c:c5:c7:f8:59:4e:76:e8:95:c9:6a:70:de:
                    e6:30:92:e6:8f:3c:6b:af:88:8e:2d:58:73:0a:e6:
                    63:64:fb:54:fc:3a:33:32:97:92:ba:99:bc:e0:b3:
                    fc:ef:fa:ce:a6:b5:3b:f3:f4:01:d9:7e:1c:31:67:
                    4e:02:f5:8d:1e:e1:17:21:26:1b:ca:2e:87:00:64:
                    6a:d8:84:71:d7:5a:4e:13:6f:dc:e6:6e:15:62:8c:
                    b5:ce:15:84:aa:23:3d:b7:bd:04:80:47:93:09:ee:
                    1c:d7:71:fc:17:14:51:75:3d:ba:1a:1e:38:d7:a4:
                    d1:a0:c5:7a:0e:a6:4c:fa:c1:51:47:f2:79:6e:ad:
                    25:8e:58:51:9a:b7:76:80:ec:99:4a:8c:06:23:43:
                    03:0f:b0:f0:bf:c4:c8:2f:1e:e0:f4:8a:15:52:9e:
                    f5:d9:35:d6:f1:76:a9:87:e7:25:13:76:94:17:a4:
                    37:b5:10:a4:e1:81:6f:1f:2f:83:b8:77:bf:58:46:
                    b8:07
                Exponent: 65537 (0x10001)
        X509v3 extensions:
            X509v3 Basic Constraints: 
                CA:FALSE
            X509v3 Subject Key Identifier: 
                14:01:F0:B1:AE:F9:E1:B4:B2:DB:6D:9E:B5:C7:C2:E7:6F:6E:5A:DD
            X509v3 Authority Key Identifier: 
                BC:86:84:82:B7:69:E0:7C:0C:FD:94:E1:68:D7:C7:E0:DC:22:4E:92
            X509v3 Key Usage: 
                Digital Signature, Non Repudiation, Key Encipherment
            X509v3 Extended Key Usage: 
                TLS Web Server Authentication
            X509v3 Subject Alternative Name: 
                DNS:web-platform.test, DNS:www.web-platform.test, DNS:not-web-platform.test, DNS:www2.web-platform.test, DNS:www1.web-platform.test, DNS:www.www.web-platform.test, DNS:www.not-web-platform.test, DNS:www.www1.web-platform.test, DNS:www1.www.web-platform.test, DNS:www.www2.web-platform.test, DNS:www2.www.web-platform.test, DNS:www1.not-web-platform.test, DNS:www2.not-web-platform.test, DNS:www2.www1.web-platform.test, DNS:www1.www2.web-platform.test, DNS:www1.www1.web-platform.test, DNS:www2.www2.web-platform.test, DNS:www.www.not-web-platform.test, DNS:xn--lve-6lad.web-platform.test, DNS:www.www2.not-web-platform.test, DNS:www1.www.not-web-platform.test, DNS:www2.www.not-web-platform.test, DNS:www.www1.not-web-platform.test, DNS:www1.www1.not-web-platform.test, DNS:www1.www2.not-web-platform.test, DNS:www2.www1.not-web-platform.test, DNS:www2.www2.not-web-platform.test, DNS:www.xn--lve-6lad.web-platform.test, DNS:xn--lve-6lad.not-web-platform.test, DNS:xn--lve-6lad.www.web-platform.test, DNS:xn--lve-6lad.www1.web-platform.test, DNS:xn--lve-6lad.www2.web-platform.test, DNS:www2.xn--lve-6lad.web-platform.test, DNS:www1.xn--lve-6lad.web-platform.test, DNS:www.xn--lve-6lad.not-web-platform.test, DNS:xn--lve-6lad.www.not-web-platform.test, DNS:xn--lve-6lad.www2.not-web-platform.test, DNS:www1.xn--lve-6lad.not-web-platform.test, DNS:www2.xn--lve-6lad.not-web-platform.test, DNS:xn--lve-6lad.www1.not-web-platform.test, DNS:xn--n8j6ds53lwwkrqhv28a.web-platform.test, DNS:xn--lve-6lad.xn--lve-6lad.web-platform.test, DNS:xn--n8j6ds53lwwkrqhv28a.not-web-platform.test, DNS:xn--n8j6ds53lwwkrqhv28a.www.web-platform.test, DNS:www.xn--n8j6ds53lwwkrqhv28a.web-platform.test, DNS:www2.xn--n8j6ds53lwwkrqhv28a.web-platform.test, DNS:xn--n8j6ds53lwwkrqhv28a.www1.web-platform.test, DNS:xn--n8j6ds53lwwkrqhv28a.www2.web-platform.test, DNS:www1.xn--n8j6ds53lwwkrqhv28a.web-platform.test, DNS:xn--lve-6lad.xn--lve-6lad.not-web-platform.test, DNS:xn--n8j6ds53lwwkrqhv28a.www.not-web-platform.test, DNS:www.xn--n8j6ds53lwwkrqhv28a.not-web-platform.test, DNS:xn--n8j6ds53lwwkrqhv28a.www1.not-web-platform.test, DNS:www2.xn--n8j6ds53lwwkrqhv28a.not-web-platform.test, DNS:xn--n8j6ds53lwwkrqhv28a.www2.not-web-platform.test, DNS:www1.xn--n8j6ds53lwwkrqhv28a.not-web-platform.test, DNS:xn--n8j6ds53lwwkrqhv28a.xn--lve-6lad.web-platform.test, DNS:xn--lve-6lad.xn--n8j6ds53lwwkrqhv28a.web-platform.test, DNS:xn--lve-6lad.xn--n8j6ds53lwwkrqhv28a.not-web-platform.test, DNS:xn--n8j6ds53lwwkrqhv28a.xn--lve-6lad.not-web-platform.test, DNS:xn--n8j6ds53lwwkrqhv28a.xn--n8j6ds53lwwkrqhv28a.web-platform.test, DNS:xn--n8j6ds53lwwkrqhv28a.xn--n8j6ds53lwwkrqhv28a.not-web-platform.test
    Signature Algorithm: sha256WithRSAEncryption
    Signature Value:
        23:26:c6:d7:23:04:31:60:31:38:61:eb:be:66:fe:fd:d0:c8:
        2d:76:f5:80:d6:f9:ce:c0:1f:e7:2d:ef:17:f7:e6:0c:43:8b:
        28:67:c6:bd:a9:a4:48:88:72:aa:bf:2a:c8:a8:32:e8:ce:56:
        71:1d:14:0b:c7:ec:5e:84:43:9a:c7:1b:fc:9a:68:48:90:42:
        21:e7:e7:df:b9:53:29:be:ea:db:e6:0b:a0:fd:ab:68:1f:9c:
        31:4c:86:39:80:08:83:5b:18:e1:b3:fa:66:07:15:98:8f:0c:
        b9:cb:8a:b2:70:3c:35:be:f9:0b:49:92:cd:e0:d4:06:d9:c0:
        43:38:ef:48:4c:e4:91:e3:ab:fa:71:67:b7:e7:ce:59:37:dc:
        c4:f2:28:68:9b:4f:ab:27:2d:f9:e6:39:fc:6d:ad:e1:fc:59:
        b6:75:62:68:17:bf:a2:ca:93:30:da:45:28:2b:5f:c4:1d:e5:
        96:bc:cd:ca:bc:6c:20:d9:19:99:7c:55:0c:e9:0c:32:07:81:
        ec:36:cb:64:d6:66:fc:67:ef:50:fe:fa:aa:9e:d5:87:15:9e:
        ff:37:d5:74:f8:93:32:b5:a3:e5:5c:7b:d9:d8:dd:1a:79:a6:
        29:da:0b:09:2d:ca:30:82:b8:a0:7f:9e:b4:85:8e:85:58:c8:
        1f:a1:ca:c7
-----BEGIN CERTIFICATE-----
MIIMsjCCC5qgAwIBAgIDAwoOMA0GCSqGSIb3DQEBCwUAMB0xGzAZBgNVBAMMEndl
Yi1wbGF0Zm9ybS10ZXN0czAeFw0yNTA1MTIwMTE5MjNaFw0yNjA1MTIwMTE5MjNa
MBwxGjAYBgNVBAMMEXdlYi1wbGF0Zm9ybS50ZXN0MIIBIjANBgkqhkiG9w0BAQEF
AAOCAQ8AMIIBCgKCAQEApNDzjxe7525xu7ZX9KpZagvONl/4FKRpQXrXd3tqRgR7
+nhQgLe+E6oY/mddHKR/uyohFd8TZP8H20ZIk2zFx/hZTnbolclqcN7mMJLmjzxr
r4iOLVhzCuZjZPtU/DozMpeSupm84LP87/rOprU78/QB2X4cMWdOAvWNHuEXISYb
yi6HAGRq2IRx11pOE2/c5m4VYoy1zhWEqiM9t70EgEeTCe4c13H8FxRRdT26Gh44
16TRoMV6DqZM+sFRR/J5bq0ljlhRmrd2gOyZSowGI0MDD7Dwv8TILx7g9IoVUp71
2TXW8Xaph+clE3aUF6Q3tRCk4YFvHy+DuHe/WEa4BwIDAQABo4IJ+jCCCfYwCQYD
VR0TBAIwADAdBgNVHQ4EFgQUFAHwsa754bSy222etcfC529uWt0wHwYDVR0jBBgw
FoAUvIaEgrdp4HwM/ZThaNfH4NwiTpIwCwYDVR0PBAQDAgXgMBMGA1UdJQQMMAoG
CCsGAQUFBwMBMIIJhQYDVR0RBIIJfDCCCXiCEXdlYi1wbGF0Zm9ybS50ZXN0ghV3
d3cud2ViLXBsYXRmb3JtLnRlc3SCFW5vdC13ZWItcGxhdGZvcm0udGVzdIIWd3d3
Mi53ZWItcGxhdGZvcm0udGVzdIIWd3d3MS53ZWItcGxhdGZvcm0udGVzdIIZd3d3
Lnd3dy53ZWItcGxhdGZvcm0udGVzdIIZd3d3Lm5vdC13ZWItcGxhdGZvcm0udGVz
dIIad3d3Lnd3dzEud2ViLXBsYXRmb3JtLnRlc3SCGnd3dzEud3d3LndlYi1wbGF0
Zm9ybS50ZXN0ghp3d3cud3d3Mi53ZWItcGxhdGZvcm0udGVzdIIad3d3Mi53d3cu
d2ViLXBsYXRmb3JtLnRlc3SCGnd3dzEubm90LXdlYi1wbGF0Zm9ybS50ZXN0ghp3
d3cyLm5vdC13ZWItcGxhdGZvcm0udGVzdIIbd3d3Mi53d3cxLndlYi1wbGF0Zm9y
bS50ZXN0ght3d3cxLnd3dzIud2ViLXBsYXRmb3JtLnRlc3SCG3d3dzEud3d3MS53
ZWItcGxhdGZvcm0udGVzdIIbd3d3Mi53d3cyLndlYi1wbGF0Zm9ybS50ZXN0gh13
d3cud3d3Lm5vdC13ZWItcGxhdGZvcm0udGVzdIIeeG4tLWx2ZS02bGFkLndlYi1w
bGF0Zm9ybS50ZXN0gh53d3cud3d3Mi5ub3Qtd2ViLXBsYXRmb3JtLnRlc3SCHnd3
dzEud3d3Lm5vdC13ZWItcGxhdGZvcm0udGVzdIIed3d3Mi53d3cubm90LXdlYi1w
bGF0Zm9ybS50ZXN0gh53d3cud3d3MS5ub3Qtd2ViLXBsYXRmb3JtLnRlc3SCH3d3
dzEud3d3MS5ub3Qtd2ViLXBsYXRmb3JtLnRlc3SCH3d3dzEud3d3Mi5ub3Qtd2Vi
LXBsYXRmb3JtLnRlc3SCH3d3dzIud3d3MS5ub3Qtd2ViLXBsYXRmb3JtLnRlc3SC
H3d3dzIud3d3Mi5ub3Qtd2ViLXBsYXRmb3JtLnRlc3SCInd3dy54bi0tbHZlLTZs
YWQud2ViLXBsYXRmb3JtLnRlc3SCInhuLS1sdmUtNmxhZC5ub3Qtd2ViLXBsYXRm
b3JtLnRlc3SCInhuLS1sdmUtNmxhZC53d3cud2ViLXBsYXRmb3JtLnRlc3SCI3hu
LS1sdmUtNmxhZC53d3cxLndlYi1wbGF0Zm9ybS50ZXN0giN4bi0tbHZlLTZsYWQu
d3d3Mi53ZWItcGxhdGZvcm0udGVzdIIjd3d3Mi54bi0tbHZlLTZsYWQud2ViLXBs
YXRmb3JtLnRlc3SCI3d3dzEueG4tLWx2ZS02bGFkLndlYi1wbGF0Zm9ybS50ZXN0
giZ3d3cueG4tLWx2ZS02bGFkLm5vdC13ZWItcGxhdGZvcm0udGVzdIImeG4tLWx2
ZS02bGFkLnd3dy5ub3Qtd2ViLXBsYXRmb3JtLnRlc3SCJ3huLS1sdmUtNmxhZC53
d3cyLm5vdC13ZWItcGxhdGZvcm0udGVzdIInd3d3MS54bi0tbHZlLTZsYWQubm90
LXdlYi1wbGF0Zm9ybS50ZXN0gid3d3cyLnhuLS1sdmUtNmxhZC5ub3Qtd2ViLXBs
YXRmb3JtLnRlc3SCJ3huLS1sdmUtNmxhZC53d3cxLm5vdC13ZWItcGxhdGZvcm0u
dGVzdIIpeG4tLW44ajZkczUzbHd3a3JxaHYyOGEud2ViLXBsYXRmb3JtLnRlc3SC
K3huLS1sdmUtNmxhZC54bi0tbHZlLTZsYWQud2ViLXBsYXRmb3JtLnRlc3SCLXhu
LS1uOGo2ZHM1M2x3d2tycWh2MjhhLm5vdC13ZWItcGxhdGZvcm0udGVzdIIteG4t
LW44ajZkczUzbHd3a3JxaHYyOGEud3d3LndlYi1wbGF0Zm9ybS50ZXN0gi13d3cu
eG4tLW44ajZkczUzbHd3a3JxaHYyOGEud2ViLXBsYXRmb3JtLnRlc3SCLnd3dzIu
eG4tLW44ajZkczUzbHd3a3JxaHYyOGEud2ViLXBsYXRmb3JtLnRlc3SCLnhuLS1u
OGo2ZHM1M2x3d2tycWh2MjhhLnd3dzEud2ViLXBsYXRmb3JtLnRlc3SCLnhuLS1u
OGo2ZHM1M2x3d2tycWh2MjhhLnd3dzIud2ViLXBsYXRmb3JtLnRlc3SCLnd3dzEu
eG4tLW44ajZkczUzbHd3a3JxaHYyOGEud2ViLXBsYXRmb3JtLnRlc3SCL3huLS1s
dmUtNmxhZC54bi0tbHZlLTZsYWQubm90LXdlYi1wbGF0Zm9ybS50ZXN0gjF4bi0t
bjhqNmRzNTNsd3drcnFodjI4YS53d3cubm90LXdlYi1wbGF0Zm9ybS50ZXN0gjF3
d3cueG4tLW44ajZkczUzbHd3a3JxaHYyOGEubm90LXdlYi1wbGF0Zm9ybS50ZXN0
gjJ4bi0tbjhqNmRzNTNsd3drcnFodjI4YS53d3cxLm5vdC13ZWItcGxhdGZvcm0u
dGVzdIIyd3d3Mi54bi0tbjhqNmRzNTNsd3drcnFodjI4YS5ub3Qtd2ViLXBsYXRm
b3JtLnRlc3SCMnhuLS1uOGo2ZHM1M2x3d2tycWh2MjhhLnd3dzIubm90LXdlYi1w
bGF0Zm9ybS50ZXN0gjJ3d3cxLnhuLS1uOGo2ZHM1M2x3d2tycWh2MjhhLm5vdC13
ZWItcGxhdGZvcm0udGVzdII2eG4tLW44ajZkczUzbHd3a3JxaHYyOGEueG4tLWx2
ZS02bGFkLndlYi1wbGF0Zm9ybS50ZXN0gjZ4bi0tbHZlLTZsYWQueG4tLW44ajZk
czUzbHd3a3JxaHYyOGEud2ViLXBsYXRmb3JtLnRlc3SCOnhuLS1sdmUtNmxhZC54
bi0tbjhqNmRzNTNsd3drcnFodjI4YS5ub3Qtd2ViLXBsYXRmb3JtLnRlc3SCOnhu
LS1uOGo2ZHM1M2x3d2tycWh2MjhhLnhuLS1sdmUtNmxhZC5ub3Qtd2ViLXBsYXRm
b3JtLnRlc3SCQXhuLS1uOGo2ZHM1M2x3d2tycWh2MjhhLnhuLS1uOGo2ZHM1M2x3
d2tycWh2MjhhLndlYi1wbGF0Zm9ybS50ZXN0gkV4bi0tbjhqNmRzNTNsd3drcnFo
djI4YS54bi0tbjhqNmRzNTNsd3drcnFodjI4YS5ub3Qtd2ViLXBsYXRmb3JtLnRl
c3QwDQYJKoZIhvcNAQELBQADggEBACMmxtcjBDFgMThh675m/v3QyC129YDW+c7A
H+ct7xf35gxDiyhnxr2ppEiIcqq/KsioMujOVnEdFAvH7F6EQ5rHG/yaaEiQQiHn
59+5Uym+6tvmC6D9q2gfnDFMhjmACINbGOGz+mYHFZiPDLnLirJwPDW++QtJks3g
1AbZwEM470hM5JHjq/pxZ7fnzlk33MTyKGibT6snLfnmOfxtreH8WbZ1YmgXv6LK
kzDaRSgrX8Qd5Za8zcq8bCDZGZl8VQzpDDIHgew2y2TWZvxn71D++qqe1YcVnv83
1XT4kzK1o+Vce9nY3Rp5pinaCwktyjCCuKB/nrSFjoVYyB+hysc=
-----END CERTIFICATE-----
