Certificate:
    Data:
        Version: 3 (0x2)
        Serial Number: 231643 (0x388db)
        Signature Algorithm: sha256WithRSAEncryption
        Issuer: CN=web-platform-tests
        Validity
            Not Before: Mar 12 01:09:52 2025 GMT
            Not After : Mar 12 01:09:52 2026 GMT
        Subject: CN=web-platform.test
        Subject Public Key Info:
            Public Key Algorithm: rsaEncryption
                RSA Public-Key: (2048 bit)
                Modulus:
                    00:bc:3f:dc:8d:49:cb:d0:69:f5:0e:0b:f1:91:9f:
                    c6:59:7c:bf:7e:30:58:00:dd:81:a8:32:df:91:cf:
                    87:fa:c2:58:45:ea:7c:f9:1b:3a:40:9a:f3:41:3f:
                    4b:ae:cc:8f:c6:ed:ef:1f:10:8d:4e:56:7a:53:e1:
                    05:7c:7c:1a:cd:fa:82:ee:d2:5f:64:9c:63:07:9c:
                    51:64:af:05:12:a0:08:d4:1a:3d:d7:e1:f1:3c:a1:
                    0d:fa:a8:46:65:73:c0:af:b3:5b:38:ff:bf:83:61:
                    46:b2:75:3d:c3:2a:e6:f7:48:b7:f3:1d:91:52:03:
                    e6:3f:ec:6e:65:78:55:7f:60:e0:00:f4:09:70:14:
                    06:c9:92:c2:2c:9b:a3:36:54:cc:8e:d5:f9:1f:3a:
                    ee:14:ca:53:64:a5:26:33:9a:30:4c:61:06:5a:14:
                    0e:23:6c:54:a9:b7:78:fb:e2:35:32:86:1e:99:db:
                    07:9f:6c:8d:71:0f:a9:b1:f6:31:46:ec:be:33:7a:
                    e3:ae:73:a2:be:bc:df:f1:9d:b9:43:0b:d9:60:69:
                    ff:02:83:c9:f8:d2:b9:53:22:9a:e0:66:cc:0b:fc:
                    25:ff:5c:f0:ac:08:a3:31:bc:a1:71:15:90:cd:f7:
                    e5:21:1b:16:a8:6c:bc:16:a0:84:74:a6:f7:ac:79:
                    5c:75
                Exponent: 65537 (0x10001)
        X509v3 extensions:
            X509v3 Basic Constraints: 
                CA:FALSE
            X509v3 Subject Key Identifier: 
                8A:5C:AA:22:DE:80:0E:63:A3:91:73:63:CF:5F:9A:9C:99:9C:EC:66
            X509v3 Authority Key Identifier: 
                keyid:01:42:EB:10:DB:46:17:F7:6B:A3:D1:9C:C2:3E:7D:61:21:C2:60:9C

            X509v3 Key Usage: 
                Digital Signature, Non Repudiation, Key Encipherment
            X509v3 Extended Key Usage: 
                TLS Web Server Authentication
            X509v3 Subject Alternative Name: 
                DNS:web-platform.test, DNS:not-web-platform.test, DNS:www.web-platform.test, DNS:www1.web-platform.test, DNS:www2.web-platform.test, DNS:www.www.web-platform.test, DNS:www.not-web-platform.test, DNS:www1.not-web-platform.test, DNS:www1.www.web-platform.test, DNS:www.www1.web-platform.test, DNS:www2.www.web-platform.test, DNS:www.www2.web-platform.test, DNS:www2.not-web-platform.test, DNS:www2.www1.web-platform.test, DNS:www2.www2.web-platform.test, DNS:www1.www2.web-platform.test, DNS:www1.www1.web-platform.test, DNS:www.www.not-web-platform.test, DNS:www.www1.not-web-platform.test, DNS:www1.www.not-web-platform.test, DNS:www.www2.not-web-platform.test, DNS:www2.www.not-web-platform.test, DNS:xn--lve-6lad.web-platform.test, DNS:www2.www2.not-web-platform.test, DNS:www1.www2.not-web-platform.test, DNS:www2.www1.not-web-platform.test, DNS:www1.www1.not-web-platform.test, DNS:xn--lve-6lad.www.web-platform.test, DNS:xn--lve-6lad.not-web-platform.test, DNS:www.xn--lve-6lad.web-platform.test, DNS:xn--lve-6lad.www2.web-platform.test, DNS:www2.xn--lve-6lad.web-platform.test, DNS:www1.xn--lve-6lad.web-platform.test, DNS:xn--lve-6lad.www1.web-platform.test, DNS:xn--lve-6lad.www.not-web-platform.test, DNS:www.xn--lve-6lad.not-web-platform.test, DNS:www1.xn--lve-6lad.not-web-platform.test, DNS:xn--lve-6lad.www1.not-web-platform.test, DNS:xn--lve-6lad.www2.not-web-platform.test, DNS:www2.xn--lve-6lad.not-web-platform.test, DNS:xn--n8j6ds53lwwkrqhv28a.web-platform.test, DNS:xn--lve-6lad.xn--lve-6lad.web-platform.test, DNS:xn--n8j6ds53lwwkrqhv28a.not-web-platform.test, DNS:www.xn--n8j6ds53lwwkrqhv28a.web-platform.test, DNS:xn--n8j6ds53lwwkrqhv28a.www.web-platform.test, DNS:xn--n8j6ds53lwwkrqhv28a.www2.web-platform.test, DNS:www2.xn--n8j6ds53lwwkrqhv28a.web-platform.test, DNS:xn--n8j6ds53lwwkrqhv28a.www1.web-platform.test, DNS:www1.xn--n8j6ds53lwwkrqhv28a.web-platform.test, DNS:xn--lve-6lad.xn--lve-6lad.not-web-platform.test, DNS:xn--n8j6ds53lwwkrqhv28a.www.not-web-platform.test, DNS:www.xn--n8j6ds53lwwkrqhv28a.not-web-platform.test, DNS:xn--n8j6ds53lwwkrqhv28a.www1.not-web-platform.test, DNS:www1.xn--n8j6ds53lwwkrqhv28a.not-web-platform.test, DNS:www2.xn--n8j6ds53lwwkrqhv28a.not-web-platform.test, DNS:xn--n8j6ds53lwwkrqhv28a.www2.not-web-platform.test, DNS:xn--lve-6lad.xn--n8j6ds53lwwkrqhv28a.web-platform.test, DNS:xn--n8j6ds53lwwkrqhv28a.xn--lve-6lad.web-platform.test, DNS:xn--lve-6lad.xn--n8j6ds53lwwkrqhv28a.not-web-platform.test, DNS:xn--n8j6ds53lwwkrqhv28a.xn--lve-6lad.not-web-platform.test, DNS:xn--n8j6ds53lwwkrqhv28a.xn--n8j6ds53lwwkrqhv28a.web-platform.test, DNS:xn--n8j6ds53lwwkrqhv28a.xn--n8j6ds53lwwkrqhv28a.not-web-platform.test
    Signature Algorithm: sha256WithRSAEncryption
         82:65:00:7f:a1:52:3c:74:d4:4d:e4:79:85:d1:24:e9:f2:b3:
         93:60:03:97:ff:3a:43:e3:79:21:4d:4e:c4:99:c8:c1:47:51:
         7d:82:22:9d:f6:3d:9e:74:61:8f:80:e5:a2:d1:e2:f1:c3:e9:
         44:32:40:cc:c0:15:c8:e1:06:c2:7a:0b:00:1f:62:4d:77:7f:
         91:ea:9e:94:65:d0:88:b6:a9:0c:1d:a7:90:55:84:92:5e:53:
         d3:92:4b:1c:60:52:3e:f0:c9:20:cc:f3:96:6f:d1:3b:fe:e2:
         00:f1:93:09:94:23:a2:d8:3b:ed:83:77:f3:a6:78:08:4d:9b:
         fe:49:a3:ec:0a:da:04:31:67:7b:cb:91:78:2d:49:bf:3b:66:
         e1:2a:ee:41:a8:0b:c5:e4:41:de:d7:d1:f0:6f:1b:ba:23:15:
         9b:cc:ce:d8:43:ba:3e:d1:24:05:61:39:15:47:3b:72:72:8d:
         39:dd:c3:76:38:df:78:05:d8:eb:20:e0:94:ae:7c:95:59:f1:
         5c:a0:ad:f3:6c:d0:61:ca:fe:69:11:bb:e7:3d:82:f5:d0:76:
         f3:c6:48:d7:3c:8b:55:0a:0d:d4:b3:39:46:a5:58:f3:84:f6:
         20:80:da:6e:4d:a8:5a:6e:39:d6:27:5e:2c:87:1c:f9:d9:ee:
         a6:73:ba:a2
-----BEGIN CERTIFICATE-----
MIIMsjCCC5qgAwIBAgIDA4jbMA0GCSqGSIb3DQEBCwUAMB0xGzAZBgNVBAMMEndl
Yi1wbGF0Zm9ybS10ZXN0czAeFw0yNTAzMTIwMTA5NTJaFw0yNjAzMTIwMTA5NTJa
MBwxGjAYBgNVBAMMEXdlYi1wbGF0Zm9ybS50ZXN0MIIBIjANBgkqhkiG9w0BAQEF
AAOCAQ8AMIIBCgKCAQEAvD/cjUnL0Gn1DgvxkZ/GWXy/fjBYAN2BqDLfkc+H+sJY
Rep8+Rs6QJrzQT9LrsyPxu3vHxCNTlZ6U+EFfHwazfqC7tJfZJxjB5xRZK8FEqAI
1Bo91+HxPKEN+qhGZXPAr7NbOP+/g2FGsnU9wyrm90i38x2RUgPmP+xuZXhVf2Dg
APQJcBQGyZLCLJujNlTMjtX5HzruFMpTZKUmM5owTGEGWhQOI2xUqbd4++I1MoYe
mdsHn2yNcQ+psfYxRuy+M3rjrnOivrzf8Z25QwvZYGn/AoPJ+NK5UyKa4GbMC/wl
/1zwrAijMbyhcRWQzfflIRsWqGy8FqCEdKb3rHlcdQIDAQABo4IJ+jCCCfYwCQYD
VR0TBAIwADAdBgNVHQ4EFgQUilyqIt6ADmOjkXNjz1+anJmc7GYwHwYDVR0jBBgw
FoAUAULrENtGF/dro9Gcwj59YSHCYJwwCwYDVR0PBAQDAgXgMBMGA1UdJQQMMAoG
CCsGAQUFBwMBMIIJhQYDVR0RBIIJfDCCCXiCEXdlYi1wbGF0Zm9ybS50ZXN0ghVu
b3Qtd2ViLXBsYXRmb3JtLnRlc3SCFXd3dy53ZWItcGxhdGZvcm0udGVzdIIWd3d3
MS53ZWItcGxhdGZvcm0udGVzdIIWd3d3Mi53ZWItcGxhdGZvcm0udGVzdIIZd3d3
Lnd3dy53ZWItcGxhdGZvcm0udGVzdIIZd3d3Lm5vdC13ZWItcGxhdGZvcm0udGVz
dIIad3d3MS5ub3Qtd2ViLXBsYXRmb3JtLnRlc3SCGnd3dzEud3d3LndlYi1wbGF0
Zm9ybS50ZXN0ghp3d3cud3d3MS53ZWItcGxhdGZvcm0udGVzdIIad3d3Mi53d3cu
d2ViLXBsYXRmb3JtLnRlc3SCGnd3dy53d3cyLndlYi1wbGF0Zm9ybS50ZXN0ghp3
d3cyLm5vdC13ZWItcGxhdGZvcm0udGVzdIIbd3d3Mi53d3cxLndlYi1wbGF0Zm9y
bS50ZXN0ght3d3cyLnd3dzIud2ViLXBsYXRmb3JtLnRlc3SCG3d3dzEud3d3Mi53
ZWItcGxhdGZvcm0udGVzdIIbd3d3MS53d3cxLndlYi1wbGF0Zm9ybS50ZXN0gh13
d3cud3d3Lm5vdC13ZWItcGxhdGZvcm0udGVzdIIed3d3Lnd3dzEubm90LXdlYi1w
bGF0Zm9ybS50ZXN0gh53d3cxLnd3dy5ub3Qtd2ViLXBsYXRmb3JtLnRlc3SCHnd3
dy53d3cyLm5vdC13ZWItcGxhdGZvcm0udGVzdIIed3d3Mi53d3cubm90LXdlYi1w
bGF0Zm9ybS50ZXN0gh54bi0tbHZlLTZsYWQud2ViLXBsYXRmb3JtLnRlc3SCH3d3
dzIud3d3Mi5ub3Qtd2ViLXBsYXRmb3JtLnRlc3SCH3d3dzEud3d3Mi5ub3Qtd2Vi
LXBsYXRmb3JtLnRlc3SCH3d3dzIud3d3MS5ub3Qtd2ViLXBsYXRmb3JtLnRlc3SC
H3d3dzEud3d3MS5ub3Qtd2ViLXBsYXRmb3JtLnRlc3SCInhuLS1sdmUtNmxhZC53
d3cud2ViLXBsYXRmb3JtLnRlc3SCInhuLS1sdmUtNmxhZC5ub3Qtd2ViLXBsYXRm
b3JtLnRlc3SCInd3dy54bi0tbHZlLTZsYWQud2ViLXBsYXRmb3JtLnRlc3SCI3hu
LS1sdmUtNmxhZC53d3cyLndlYi1wbGF0Zm9ybS50ZXN0giN3d3cyLnhuLS1sdmUt
NmxhZC53ZWItcGxhdGZvcm0udGVzdIIjd3d3MS54bi0tbHZlLTZsYWQud2ViLXBs
YXRmb3JtLnRlc3SCI3huLS1sdmUtNmxhZC53d3cxLndlYi1wbGF0Zm9ybS50ZXN0
giZ4bi0tbHZlLTZsYWQud3d3Lm5vdC13ZWItcGxhdGZvcm0udGVzdIImd3d3Lnhu
LS1sdmUtNmxhZC5ub3Qtd2ViLXBsYXRmb3JtLnRlc3SCJ3d3dzEueG4tLWx2ZS02
bGFkLm5vdC13ZWItcGxhdGZvcm0udGVzdIIneG4tLWx2ZS02bGFkLnd3dzEubm90
LXdlYi1wbGF0Zm9ybS50ZXN0gid4bi0tbHZlLTZsYWQud3d3Mi5ub3Qtd2ViLXBs
YXRmb3JtLnRlc3SCJ3d3dzIueG4tLWx2ZS02bGFkLm5vdC13ZWItcGxhdGZvcm0u
dGVzdIIpeG4tLW44ajZkczUzbHd3a3JxaHYyOGEud2ViLXBsYXRmb3JtLnRlc3SC
K3huLS1sdmUtNmxhZC54bi0tbHZlLTZsYWQud2ViLXBsYXRmb3JtLnRlc3SCLXhu
LS1uOGo2ZHM1M2x3d2tycWh2MjhhLm5vdC13ZWItcGxhdGZvcm0udGVzdIItd3d3
LnhuLS1uOGo2ZHM1M2x3d2tycWh2MjhhLndlYi1wbGF0Zm9ybS50ZXN0gi14bi0t
bjhqNmRzNTNsd3drcnFodjI4YS53d3cud2ViLXBsYXRmb3JtLnRlc3SCLnhuLS1u
OGo2ZHM1M2x3d2tycWh2MjhhLnd3dzIud2ViLXBsYXRmb3JtLnRlc3SCLnd3dzIu
eG4tLW44ajZkczUzbHd3a3JxaHYyOGEud2ViLXBsYXRmb3JtLnRlc3SCLnhuLS1u
OGo2ZHM1M2x3d2tycWh2MjhhLnd3dzEud2ViLXBsYXRmb3JtLnRlc3SCLnd3dzEu
eG4tLW44ajZkczUzbHd3a3JxaHYyOGEud2ViLXBsYXRmb3JtLnRlc3SCL3huLS1s
dmUtNmxhZC54bi0tbHZlLTZsYWQubm90LXdlYi1wbGF0Zm9ybS50ZXN0gjF4bi0t
bjhqNmRzNTNsd3drcnFodjI4YS53d3cubm90LXdlYi1wbGF0Zm9ybS50ZXN0gjF3
d3cueG4tLW44ajZkczUzbHd3a3JxaHYyOGEubm90LXdlYi1wbGF0Zm9ybS50ZXN0
gjJ4bi0tbjhqNmRzNTNsd3drcnFodjI4YS53d3cxLm5vdC13ZWItcGxhdGZvcm0u
dGVzdIIyd3d3MS54bi0tbjhqNmRzNTNsd3drcnFodjI4YS5ub3Qtd2ViLXBsYXRm
b3JtLnRlc3SCMnd3dzIueG4tLW44ajZkczUzbHd3a3JxaHYyOGEubm90LXdlYi1w
bGF0Zm9ybS50ZXN0gjJ4bi0tbjhqNmRzNTNsd3drcnFodjI4YS53d3cyLm5vdC13
ZWItcGxhdGZvcm0udGVzdII2eG4tLWx2ZS02bGFkLnhuLS1uOGo2ZHM1M2x3d2ty
cWh2MjhhLndlYi1wbGF0Zm9ybS50ZXN0gjZ4bi0tbjhqNmRzNTNsd3drcnFodjI4
YS54bi0tbHZlLTZsYWQud2ViLXBsYXRmb3JtLnRlc3SCOnhuLS1sdmUtNmxhZC54
bi0tbjhqNmRzNTNsd3drcnFodjI4YS5ub3Qtd2ViLXBsYXRmb3JtLnRlc3SCOnhu
LS1uOGo2ZHM1M2x3d2tycWh2MjhhLnhuLS1sdmUtNmxhZC5ub3Qtd2ViLXBsYXRm
b3JtLnRlc3SCQXhuLS1uOGo2ZHM1M2x3d2tycWh2MjhhLnhuLS1uOGo2ZHM1M2x3
d2tycWh2MjhhLndlYi1wbGF0Zm9ybS50ZXN0gkV4bi0tbjhqNmRzNTNsd3drcnFo
djI4YS54bi0tbjhqNmRzNTNsd3drcnFodjI4YS5ub3Qtd2ViLXBsYXRmb3JtLnRl
c3QwDQYJKoZIhvcNAQELBQADggEBAIJlAH+hUjx01E3keYXRJOnys5NgA5f/OkPj
eSFNTsSZyMFHUX2CIp32PZ50YY+A5aLR4vHD6UQyQMzAFcjhBsJ6CwAfYk13f5Hq
npRl0Ii2qQwdp5BVhJJeU9OSSxxgUj7wySDM85Zv0Tv+4gDxkwmUI6LYO+2Dd/Om
eAhNm/5Jo+wK2gQxZ3vLkXgtSb87ZuEq7kGoC8XkQd7X0fBvG7ojFZvMzthDuj7R
JAVhORVHO3JyjTndw3Y433gF2Osg4JSufJVZ8VygrfNs0GHK/mkRu+c9gvXQdvPG
SNc8i1UKDdSzOUalWPOE9iCA2m5NqFpuOdYnXiyHHPnZ7qZzuqI=
-----END CERTIFICATE-----
