Certificate:
    Data:
        Version: 3 (0x2)
        Serial Number: 631397 (0x9a265)
        Signature Algorithm: sha256WithRSAEncryption
        Issuer: CN=web-platform-tests
        Validity
            Not Before: Nov 12 01:17:10 2025 GMT
            Not After : Nov 12 01:17:10 2026 GMT
        Subject: CN=web-platform.test
        Subject Public Key Info:
            Public Key Algorithm: rsaEncryption
                Public-Key: (2048 bit)
                Modulus:
                    00:c4:cf:f8:84:d9:c8:1f:0c:4d:6c:2d:0b:be:47:
                    c0:b3:24:42:76:7d:83:32:ea:a0:2a:f6:a9:23:ad:
                    15:a0:42:e6:66:6d:a2:6a:58:b1:40:46:e7:93:22:
                    73:80:69:3d:d8:4d:a9:c3:fa:f0:d4:09:79:f5:93:
                    26:73:87:ef:c4:63:d2:54:90:52:d3:c1:d4:b0:b5:
                    c4:7d:60:be:bc:ef:15:5b:69:15:f7:06:78:70:2c:
                    48:10:0e:16:e3:14:b4:50:f8:4a:aa:cf:0f:d0:3e:
                    87:94:1b:0c:59:62:48:31:a0:26:8a:93:3e:c7:bb:
                    2c:bb:fb:2a:c3:b0:2e:fd:e0:57:ad:34:54:88:00:
                    14:c3:76:71:3b:c1:de:5f:03:dc:73:18:a0:61:3e:
                    ae:a1:e1:5e:61:0a:f7:72:b9:25:56:af:a0:52:1b:
                    bb:76:bb:0c:73:c9:cf:fd:35:fd:0f:8c:9a:0d:59:
                    29:d6:5a:3a:cd:de:c2:24:45:ef:04:6b:75:48:be:
                    2a:fc:08:38:54:c6:10:7c:7e:e0:a1:79:39:82:83:
                    6c:4f:43:b5:b9:9e:a3:69:40:7f:9a:10:fd:33:a6:
                    40:41:a6:e7:c4:29:e3:ad:ac:79:13:d0:14:a3:d1:
                    af:68:3f:f7:58:34:76:b0:ee:d8:53:f3:6b:89:3d:
                    7b:81
                Exponent: 65537 (0x10001)
        X509v3 extensions:
            X509v3 Basic Constraints: 
                CA:FALSE
            X509v3 Subject Key Identifier: 
                3D:07:8C:A2:5B:C1:67:0A:81:AD:24:C0:84:01:29:D1:91:39:E6:CE
            X509v3 Authority Key Identifier: 
                3E:EF:3D:ED:31:EE:89:90:34:CC:FC:F6:B3:B7:99:E5:64:25:F3:1D
            X509v3 Key Usage: 
                Digital Signature, Non Repudiation, Key Encipherment
            X509v3 Extended Key Usage: 
                TLS Web Server Authentication
            X509v3 Subject Alternative Name: 
                DNS:web-platform.test, DNS:www.web-platform.test, DNS:not-web-platform.test, DNS:www1.web-platform.test, DNS:www2.web-platform.test, DNS:www.not-web-platform.test, DNS:www.www.web-platform.test, DNS:www.www2.web-platform.test, DNS:www.www1.web-platform.test, DNS:www1.www.web-platform.test, DNS:www2.www.web-platform.test, DNS:www1.not-web-platform.test, DNS:www2.not-web-platform.test, DNS:www2.www1.web-platform.test, DNS:www1.www2.web-platform.test, DNS:www2.www2.web-platform.test, DNS:www1.www1.web-platform.test, DNS:www.www.not-web-platform.test, DNS:xn--lve-6lad.web-platform.test, DNS:www2.www.not-web-platform.test, DNS:www1.www.not-web-platform.test, DNS:www.www1.not-web-platform.test, DNS:www.www2.not-web-platform.test, DNS:www1.www2.not-web-platform.test, DNS:www2.www1.not-web-platform.test, DNS:www2.www2.not-web-platform.test, DNS:www1.www1.not-web-platform.test, DNS:xn--lve-6lad.www.web-platform.test, DNS:www.xn--lve-6lad.web-platform.test, DNS:xn--lve-6lad.not-web-platform.test, DNS:www1.xn--lve-6lad.web-platform.test, DNS:www2.xn--lve-6lad.web-platform.test, DNS:xn--lve-6lad.www1.web-platform.test, DNS:xn--lve-6lad.www2.web-platform.test, DNS:www.xn--lve-6lad.not-web-platform.test, DNS:xn--lve-6lad.www.not-web-platform.test, DNS:xn--lve-6lad.www1.not-web-platform.test, DNS:www1.xn--lve-6lad.not-web-platform.test, DNS:www2.xn--lve-6lad.not-web-platform.test, DNS:xn--lve-6lad.www2.not-web-platform.test, DNS:xn--n8j6ds53lwwkrqhv28a.web-platform.test, DNS:xn--lve-6lad.xn--lve-6lad.web-platform.test, DNS:www.xn--n8j6ds53lwwkrqhv28a.web-platform.test, DNS:xn--n8j6ds53lwwkrqhv28a.not-web-platform.test, DNS:xn--n8j6ds53lwwkrqhv28a.www.web-platform.test, DNS:www2.xn--n8j6ds53lwwkrqhv28a.web-platform.test, DNS:xn--n8j6ds53lwwkrqhv28a.www2.web-platform.test, DNS:xn--n8j6ds53lwwkrqhv28a.www1.web-platform.test, DNS:www1.xn--n8j6ds53lwwkrqhv28a.web-platform.test, DNS:xn--lve-6lad.xn--lve-6lad.not-web-platform.test, DNS:xn--n8j6ds53lwwkrqhv28a.www.not-web-platform.test, DNS:www.xn--n8j6ds53lwwkrqhv28a.not-web-platform.test, DNS:www1.xn--n8j6ds53lwwkrqhv28a.not-web-platform.test, DNS:xn--n8j6ds53lwwkrqhv28a.www1.not-web-platform.test, DNS:www2.xn--n8j6ds53lwwkrqhv28a.not-web-platform.test, DNS:xn--n8j6ds53lwwkrqhv28a.www2.not-web-platform.test, DNS:xn--n8j6ds53lwwkrqhv28a.xn--lve-6lad.web-platform.test, DNS:xn--lve-6lad.xn--n8j6ds53lwwkrqhv28a.web-platform.test, DNS:xn--n8j6ds53lwwkrqhv28a.xn--lve-6lad.not-web-platform.test, DNS:xn--lve-6lad.xn--n8j6ds53lwwkrqhv28a.not-web-platform.test, DNS:xn--n8j6ds53lwwkrqhv28a.xn--n8j6ds53lwwkrqhv28a.web-platform.test, DNS:xn--n8j6ds53lwwkrqhv28a.xn--n8j6ds53lwwkrqhv28a.not-web-platform.test
    Signature Algorithm: sha256WithRSAEncryption
    Signature Value:
        92:46:c2:46:5f:9b:7f:d6:c2:c3:c1:c3:52:3a:a2:cd:30:ae:
        bc:29:9d:54:72:49:4c:59:a7:b7:34:47:37:16:29:94:25:39:
        a8:d8:f0:0f:2b:12:f7:82:38:2c:d5:46:ff:62:77:22:bb:60:
        8d:e3:b1:3f:c9:17:75:62:84:ae:16:a1:9e:92:6b:5e:de:e4:
        d8:43:08:44:e3:b7:66:fa:ed:97:5e:7b:e4:fd:e3:29:5d:ae:
        4b:b9:68:cb:91:60:7e:43:8c:a6:89:1b:c8:bf:f6:28:27:65:
        ff:2a:00:d4:99:4d:c3:2d:e8:a0:37:31:c3:69:c2:85:de:d1:
        d1:33:b5:bd:1f:c8:1c:9c:31:4f:8c:67:67:2e:04:00:b1:99:
        8d:2d:23:b9:5d:d3:fc:84:de:d1:6e:7c:2c:17:59:a2:65:d7:
        e8:7d:cb:5a:7a:53:9a:b0:47:40:64:3e:da:fe:bf:d8:72:3f:
        67:8a:1c:4d:0d:db:49:79:d4:63:5a:cd:44:dd:50:79:4f:9d:
        63:0c:e6:a6:38:8c:1b:75:7f:62:27:32:17:e5:be:1f:51:81:
        cd:66:fe:a8:80:a7:9d:4f:a0:8b:82:de:a7:3b:1a:0a:a0:c0:
        e7:9c:7a:0f:1e:99:e7:e4:37:0b:4b:0c:ab:6e:ca:70:d3:32:
        63:e1:6d:0e
-----BEGIN CERTIFICATE-----
MIIMsjCCC5qgAwIBAgIDCaJlMA0GCSqGSIb3DQEBCwUAMB0xGzAZBgNVBAMMEndl
Yi1wbGF0Zm9ybS10ZXN0czAeFw0yNTExMTIwMTE3MTBaFw0yNjExMTIwMTE3MTBa
MBwxGjAYBgNVBAMMEXdlYi1wbGF0Zm9ybS50ZXN0MIIBIjANBgkqhkiG9w0BAQEF
AAOCAQ8AMIIBCgKCAQEAxM/4hNnIHwxNbC0LvkfAsyRCdn2DMuqgKvapI60VoELm
Zm2ialixQEbnkyJzgGk92E2pw/rw1Al59ZMmc4fvxGPSVJBS08HUsLXEfWC+vO8V
W2kV9wZ4cCxIEA4W4xS0UPhKqs8P0D6HlBsMWWJIMaAmipM+x7ssu/sqw7Au/eBX
rTRUiAAUw3ZxO8HeXwPccxigYT6uoeFeYQr3crklVq+gUhu7drsMc8nP/TX9D4ya
DVkp1lo6zd7CJEXvBGt1SL4q/Ag4VMYQfH7goXk5goNsT0O1uZ6jaUB/mhD9M6ZA
QabnxCnjrax5E9AUo9GvaD/3WDR2sO7YU/NriT17gQIDAQABo4IJ+jCCCfYwCQYD
VR0TBAIwADAdBgNVHQ4EFgQUPQeMolvBZwqBrSTAhAEp0ZE55s4wHwYDVR0jBBgw
FoAUPu897THuiZA0zPz2s7eZ5WQl8x0wCwYDVR0PBAQDAgXgMBMGA1UdJQQMMAoG
CCsGAQUFBwMBMIIJhQYDVR0RBIIJfDCCCXiCEXdlYi1wbGF0Zm9ybS50ZXN0ghV3
d3cud2ViLXBsYXRmb3JtLnRlc3SCFW5vdC13ZWItcGxhdGZvcm0udGVzdIIWd3d3
MS53ZWItcGxhdGZvcm0udGVzdIIWd3d3Mi53ZWItcGxhdGZvcm0udGVzdIIZd3d3
Lm5vdC13ZWItcGxhdGZvcm0udGVzdIIZd3d3Lnd3dy53ZWItcGxhdGZvcm0udGVz
dIIad3d3Lnd3dzIud2ViLXBsYXRmb3JtLnRlc3SCGnd3dy53d3cxLndlYi1wbGF0
Zm9ybS50ZXN0ghp3d3cxLnd3dy53ZWItcGxhdGZvcm0udGVzdIIad3d3Mi53d3cu
d2ViLXBsYXRmb3JtLnRlc3SCGnd3dzEubm90LXdlYi1wbGF0Zm9ybS50ZXN0ghp3
d3cyLm5vdC13ZWItcGxhdGZvcm0udGVzdIIbd3d3Mi53d3cxLndlYi1wbGF0Zm9y
bS50ZXN0ght3d3cxLnd3dzIud2ViLXBsYXRmb3JtLnRlc3SCG3d3dzIud3d3Mi53
ZWItcGxhdGZvcm0udGVzdIIbd3d3MS53d3cxLndlYi1wbGF0Zm9ybS50ZXN0gh13
d3cud3d3Lm5vdC13ZWItcGxhdGZvcm0udGVzdIIeeG4tLWx2ZS02bGFkLndlYi1w
bGF0Zm9ybS50ZXN0gh53d3cyLnd3dy5ub3Qtd2ViLXBsYXRmb3JtLnRlc3SCHnd3
dzEud3d3Lm5vdC13ZWItcGxhdGZvcm0udGVzdIIed3d3Lnd3dzEubm90LXdlYi1w
bGF0Zm9ybS50ZXN0gh53d3cud3d3Mi5ub3Qtd2ViLXBsYXRmb3JtLnRlc3SCH3d3
dzEud3d3Mi5ub3Qtd2ViLXBsYXRmb3JtLnRlc3SCH3d3dzIud3d3MS5ub3Qtd2Vi
LXBsYXRmb3JtLnRlc3SCH3d3dzIud3d3Mi5ub3Qtd2ViLXBsYXRmb3JtLnRlc3SC
H3d3dzEud3d3MS5ub3Qtd2ViLXBsYXRmb3JtLnRlc3SCInhuLS1sdmUtNmxhZC53
d3cud2ViLXBsYXRmb3JtLnRlc3SCInd3dy54bi0tbHZlLTZsYWQud2ViLXBsYXRm
b3JtLnRlc3SCInhuLS1sdmUtNmxhZC5ub3Qtd2ViLXBsYXRmb3JtLnRlc3SCI3d3
dzEueG4tLWx2ZS02bGFkLndlYi1wbGF0Zm9ybS50ZXN0giN3d3cyLnhuLS1sdmUt
NmxhZC53ZWItcGxhdGZvcm0udGVzdIIjeG4tLWx2ZS02bGFkLnd3dzEud2ViLXBs
YXRmb3JtLnRlc3SCI3huLS1sdmUtNmxhZC53d3cyLndlYi1wbGF0Zm9ybS50ZXN0
giZ3d3cueG4tLWx2ZS02bGFkLm5vdC13ZWItcGxhdGZvcm0udGVzdIImeG4tLWx2
ZS02bGFkLnd3dy5ub3Qtd2ViLXBsYXRmb3JtLnRlc3SCJ3huLS1sdmUtNmxhZC53
d3cxLm5vdC13ZWItcGxhdGZvcm0udGVzdIInd3d3MS54bi0tbHZlLTZsYWQubm90
LXdlYi1wbGF0Zm9ybS50ZXN0gid3d3cyLnhuLS1sdmUtNmxhZC5ub3Qtd2ViLXBs
YXRmb3JtLnRlc3SCJ3huLS1sdmUtNmxhZC53d3cyLm5vdC13ZWItcGxhdGZvcm0u
dGVzdIIpeG4tLW44ajZkczUzbHd3a3JxaHYyOGEud2ViLXBsYXRmb3JtLnRlc3SC
K3huLS1sdmUtNmxhZC54bi0tbHZlLTZsYWQud2ViLXBsYXRmb3JtLnRlc3SCLXd3
dy54bi0tbjhqNmRzNTNsd3drcnFodjI4YS53ZWItcGxhdGZvcm0udGVzdIIteG4t
LW44ajZkczUzbHd3a3JxaHYyOGEubm90LXdlYi1wbGF0Zm9ybS50ZXN0gi14bi0t
bjhqNmRzNTNsd3drcnFodjI4YS53d3cud2ViLXBsYXRmb3JtLnRlc3SCLnd3dzIu
eG4tLW44ajZkczUzbHd3a3JxaHYyOGEud2ViLXBsYXRmb3JtLnRlc3SCLnhuLS1u
OGo2ZHM1M2x3d2tycWh2MjhhLnd3dzIud2ViLXBsYXRmb3JtLnRlc3SCLnhuLS1u
OGo2ZHM1M2x3d2tycWh2MjhhLnd3dzEud2ViLXBsYXRmb3JtLnRlc3SCLnd3dzEu
eG4tLW44ajZkczUzbHd3a3JxaHYyOGEud2ViLXBsYXRmb3JtLnRlc3SCL3huLS1s
dmUtNmxhZC54bi0tbHZlLTZsYWQubm90LXdlYi1wbGF0Zm9ybS50ZXN0gjF4bi0t
bjhqNmRzNTNsd3drcnFodjI4YS53d3cubm90LXdlYi1wbGF0Zm9ybS50ZXN0gjF3
d3cueG4tLW44ajZkczUzbHd3a3JxaHYyOGEubm90LXdlYi1wbGF0Zm9ybS50ZXN0
gjJ3d3cxLnhuLS1uOGo2ZHM1M2x3d2tycWh2MjhhLm5vdC13ZWItcGxhdGZvcm0u
dGVzdIIyeG4tLW44ajZkczUzbHd3a3JxaHYyOGEud3d3MS5ub3Qtd2ViLXBsYXRm
b3JtLnRlc3SCMnd3dzIueG4tLW44ajZkczUzbHd3a3JxaHYyOGEubm90LXdlYi1w
bGF0Zm9ybS50ZXN0gjJ4bi0tbjhqNmRzNTNsd3drcnFodjI4YS53d3cyLm5vdC13
ZWItcGxhdGZvcm0udGVzdII2eG4tLW44ajZkczUzbHd3a3JxaHYyOGEueG4tLWx2
ZS02bGFkLndlYi1wbGF0Zm9ybS50ZXN0gjZ4bi0tbHZlLTZsYWQueG4tLW44ajZk
czUzbHd3a3JxaHYyOGEud2ViLXBsYXRmb3JtLnRlc3SCOnhuLS1uOGo2ZHM1M2x3
d2tycWh2MjhhLnhuLS1sdmUtNmxhZC5ub3Qtd2ViLXBsYXRmb3JtLnRlc3SCOnhu
LS1sdmUtNmxhZC54bi0tbjhqNmRzNTNsd3drcnFodjI4YS5ub3Qtd2ViLXBsYXRm
b3JtLnRlc3SCQXhuLS1uOGo2ZHM1M2x3d2tycWh2MjhhLnhuLS1uOGo2ZHM1M2x3
d2tycWh2MjhhLndlYi1wbGF0Zm9ybS50ZXN0gkV4bi0tbjhqNmRzNTNsd3drcnFo
djI4YS54bi0tbjhqNmRzNTNsd3drcnFodjI4YS5ub3Qtd2ViLXBsYXRmb3JtLnRl
c3QwDQYJKoZIhvcNAQELBQADggEBAJJGwkZfm3/WwsPBw1I6os0wrrwpnVRySUxZ
p7c0RzcWKZQlOajY8A8rEveCOCzVRv9idyK7YI3jsT/JF3VihK4WoZ6Sa17e5NhD
CETjt2b67Zdee+T94yldrku5aMuRYH5DjKaJG8i/9ignZf8qANSZTcMt6KA3McNp
woXe0dEztb0fyBycMU+MZ2cuBACxmY0tI7ld0/yE3tFufCwXWaJl1+h9y1p6U5qw
R0BkPtr+v9hyP2eKHE0N20l51GNazUTdUHlPnWMM5qY4jBt1f2InMhflvh9Rgc1m
/qiAp51PoIuC3qc7GgqgwOeceg8emefkNwtLDKtuynDTMmPhbQ4=
-----END CERTIFICATE-----
