Certificate:
    Data:
        Version: 3 (0x2)
        Serial Number: 684712 (0xa72a8)
        Signature Algorithm: sha256WithRSAEncryption
        Issuer: CN=web-platform-tests
        Validity
            Not Before: Oct 12 01:15:23 2025 GMT
            Not After : Oct 12 01:15:23 2026 GMT
        Subject: CN=web-platform.test
        Subject Public Key Info:
            Public Key Algorithm: rsaEncryption
                Public-Key: (2048 bit)
                Modulus:
                    00:bb:fe:58:31:0a:39:24:06:75:db:a5:20:9d:d1:
                    25:b0:11:b8:ab:1c:67:e9:a0:a5:50:cf:ef:18:f2:
                    d6:3e:f7:e4:23:12:c2:22:ad:2a:b4:af:1d:7b:95:
                    23:d2:be:80:d0:2d:6d:09:c1:2b:ca:e4:b0:dc:e8:
                    ef:f1:ac:58:93:13:88:82:89:12:84:1d:d5:b2:20:
                    dd:50:97:ee:d9:3e:8c:e4:7e:fa:a0:4d:cc:10:06:
                    7b:78:a6:07:d2:0f:f3:ca:20:a6:55:d8:aa:07:d0:
                    a2:c1:8a:2b:77:55:a4:0d:11:58:64:6a:97:fc:e2:
                    02:ca:fc:1d:89:ac:a7:6b:9e:11:5e:7d:91:d9:e4:
                    3e:ed:ad:ec:9b:5e:93:4b:96:86:ba:24:42:3b:2f:
                    91:18:f9:26:82:f4:19:3f:aa:5f:54:6a:b5:ae:0d:
                    72:ae:c6:e8:8f:1d:be:13:24:e2:73:4c:3a:7e:1c:
                    94:77:e5:ce:6f:06:9f:4c:09:3c:fe:78:14:72:65:
                    39:d1:e3:6c:e0:99:7f:2d:78:5b:61:75:14:5f:a7:
                    9f:f0:18:5a:00:a9:5a:24:c5:34:43:a7:4a:ef:c4:
                    06:c3:ec:25:69:f6:ee:cc:bb:26:29:52:71:ad:30:
                    c9:97:a5:11:a6:14:6f:c3:bf:44:5f:0c:ce:a2:0b:
                    42:8f
                Exponent: 65537 (0x10001)
        X509v3 extensions:
            X509v3 Basic Constraints: 
                CA:FALSE
            X509v3 Subject Key Identifier: 
                C1:95:6D:E7:F0:36:5A:D9:94:7C:26:9E:51:17:E9:FF:8A:0B:23:3E
            X509v3 Authority Key Identifier: 
                F7:E6:4E:76:92:EC:11:EC:2E:71:92:BD:9B:15:06:60:30:5A:8C:66
            X509v3 Key Usage: 
                Digital Signature, Non Repudiation, Key Encipherment
            X509v3 Extended Key Usage: 
                TLS Web Server Authentication
            X509v3 Subject Alternative Name: 
                DNS:web-platform.test, DNS:www.web-platform.test, DNS:not-web-platform.test, DNS:www1.web-platform.test, DNS:www2.web-platform.test, DNS:www.www.web-platform.test, DNS:www.not-web-platform.test, DNS:www2.www.web-platform.test, DNS:www2.not-web-platform.test, DNS:www1.www.web-platform.test, DNS:www.www2.web-platform.test, DNS:www.www1.web-platform.test, DNS:www1.not-web-platform.test, DNS:www2.www2.web-platform.test, DNS:www2.www1.web-platform.test, DNS:www1.www2.web-platform.test, DNS:www1.www1.web-platform.test, DNS:www.www.not-web-platform.test, DNS:xn--lve-6lad.web-platform.test, DNS:www.www2.not-web-platform.test, DNS:www2.www.not-web-platform.test, DNS:www1.www.not-web-platform.test, DNS:www.www1.not-web-platform.test, DNS:www1.www1.not-web-platform.test, DNS:www2.www2.not-web-platform.test, DNS:www2.www1.not-web-platform.test, DNS:www1.www2.not-web-platform.test, DNS:xn--lve-6lad.www.web-platform.test, DNS:www.xn--lve-6lad.web-platform.test, DNS:xn--lve-6lad.not-web-platform.test, DNS:xn--lve-6lad.www2.web-platform.test, DNS:www2.xn--lve-6lad.web-platform.test, DNS:xn--lve-6lad.www1.web-platform.test, DNS:www1.xn--lve-6lad.web-platform.test, DNS:xn--lve-6lad.www.not-web-platform.test, DNS:www.xn--lve-6lad.not-web-platform.test, DNS:www2.xn--lve-6lad.not-web-platform.test, DNS:www1.xn--lve-6lad.not-web-platform.test, DNS:xn--lve-6lad.www1.not-web-platform.test, DNS:xn--lve-6lad.www2.not-web-platform.test, DNS:xn--n8j6ds53lwwkrqhv28a.web-platform.test, DNS:xn--lve-6lad.xn--lve-6lad.web-platform.test, DNS:xn--n8j6ds53lwwkrqhv28a.www.web-platform.test, DNS:www.xn--n8j6ds53lwwkrqhv28a.web-platform.test, DNS:xn--n8j6ds53lwwkrqhv28a.not-web-platform.test, DNS:xn--n8j6ds53lwwkrqhv28a.www1.web-platform.test, DNS:xn--n8j6ds53lwwkrqhv28a.www2.web-platform.test, DNS:www1.xn--n8j6ds53lwwkrqhv28a.web-platform.test, DNS:www2.xn--n8j6ds53lwwkrqhv28a.web-platform.test, DNS:xn--lve-6lad.xn--lve-6lad.not-web-platform.test, DNS:www.xn--n8j6ds53lwwkrqhv28a.not-web-platform.test, DNS:xn--n8j6ds53lwwkrqhv28a.www.not-web-platform.test, DNS:www2.xn--n8j6ds53lwwkrqhv28a.not-web-platform.test, DNS:xn--n8j6ds53lwwkrqhv28a.www1.not-web-platform.test, DNS:www1.xn--n8j6ds53lwwkrqhv28a.not-web-platform.test, DNS:xn--n8j6ds53lwwkrqhv28a.www2.not-web-platform.test, DNS:xn--lve-6lad.xn--n8j6ds53lwwkrqhv28a.web-platform.test, DNS:xn--n8j6ds53lwwkrqhv28a.xn--lve-6lad.web-platform.test, DNS:xn--lve-6lad.xn--n8j6ds53lwwkrqhv28a.not-web-platform.test, DNS:xn--n8j6ds53lwwkrqhv28a.xn--lve-6lad.not-web-platform.test, DNS:xn--n8j6ds53lwwkrqhv28a.xn--n8j6ds53lwwkrqhv28a.web-platform.test, DNS:xn--n8j6ds53lwwkrqhv28a.xn--n8j6ds53lwwkrqhv28a.not-web-platform.test
    Signature Algorithm: sha256WithRSAEncryption
    Signature Value:
        a0:a2:33:7e:8c:83:a6:db:00:2a:ee:77:a2:37:f2:bf:4c:29:
        50:75:e9:df:af:0c:25:54:c9:f9:bd:0f:8d:ad:9c:c0:63:a5:
        1d:6c:3b:a5:1e:70:a3:6c:28:d6:7a:ea:f4:1b:6d:37:a0:fc:
        5b:6b:5e:ab:2d:e3:ed:2c:96:54:55:b9:2f:47:01:64:07:3c:
        39:7b:ea:25:0b:2b:f8:08:d8:91:a8:e7:c1:ac:79:53:ca:95:
        fc:65:28:17:7f:7d:bb:e4:f6:cd:8e:68:19:1a:1d:87:a2:33:
        2b:34:8b:2c:14:9a:98:50:cd:1b:c0:63:b8:d6:8d:73:ad:12:
        a8:37:2d:a3:4e:ec:fb:c8:7e:a5:a3:73:c9:f3:6e:ad:2c:89:
        c2:1b:f9:6f:86:99:65:3c:05:57:b0:63:77:6d:70:c3:8f:14:
        93:68:1d:82:3d:4b:3b:f6:ec:b8:3e:c5:c2:3b:32:67:78:7f:
        a4:2d:09:4a:c0:53:e4:d1:e3:ea:e1:20:e3:f2:ed:07:eb:c1:
        a8:ef:1c:06:3e:4a:79:fa:d5:2c:16:98:60:9c:af:a2:13:e8:
        fd:04:73:95:23:b7:fb:f8:81:0b:01:9b:9f:ad:f4:e6:44:d4:
        45:2c:73:61:38:30:f7:10:c1:94:d4:f4:03:e0:40:60:f2:14:
        4e:93:ba:39
-----BEGIN CERTIFICATE-----
MIIMsjCCC5qgAwIBAgIDCnKoMA0GCSqGSIb3DQEBCwUAMB0xGzAZBgNVBAMMEndl
Yi1wbGF0Zm9ybS10ZXN0czAeFw0yNTEwMTIwMTE1MjNaFw0yNjEwMTIwMTE1MjNa
MBwxGjAYBgNVBAMMEXdlYi1wbGF0Zm9ybS50ZXN0MIIBIjANBgkqhkiG9w0BAQEF
AAOCAQ8AMIIBCgKCAQEAu/5YMQo5JAZ126UgndElsBG4qxxn6aClUM/vGPLWPvfk
IxLCIq0qtK8de5Uj0r6A0C1tCcEryuSw3Ojv8axYkxOIgokShB3VsiDdUJfu2T6M
5H76oE3MEAZ7eKYH0g/zyiCmVdiqB9CiwYord1WkDRFYZGqX/OICyvwdiayna54R
Xn2R2eQ+7a3sm16TS5aGuiRCOy+RGPkmgvQZP6pfVGq1rg1yrsbojx2+EyTic0w6
fhyUd+XObwafTAk8/ngUcmU50eNs4Jl/LXhbYXUUX6ef8BhaAKlaJMU0Q6dK78QG
w+wlafbuzLsmKVJxrTDJl6URphRvw79EXwzOogtCjwIDAQABo4IJ+jCCCfYwCQYD
VR0TBAIwADAdBgNVHQ4EFgQUwZVt5/A2WtmUfCaeURfp/4oLIz4wHwYDVR0jBBgw
FoAU9+ZOdpLsEewucZK9mxUGYDBajGYwCwYDVR0PBAQDAgXgMBMGA1UdJQQMMAoG
CCsGAQUFBwMBMIIJhQYDVR0RBIIJfDCCCXiCEXdlYi1wbGF0Zm9ybS50ZXN0ghV3
d3cud2ViLXBsYXRmb3JtLnRlc3SCFW5vdC13ZWItcGxhdGZvcm0udGVzdIIWd3d3
MS53ZWItcGxhdGZvcm0udGVzdIIWd3d3Mi53ZWItcGxhdGZvcm0udGVzdIIZd3d3
Lnd3dy53ZWItcGxhdGZvcm0udGVzdIIZd3d3Lm5vdC13ZWItcGxhdGZvcm0udGVz
dIIad3d3Mi53d3cud2ViLXBsYXRmb3JtLnRlc3SCGnd3dzIubm90LXdlYi1wbGF0
Zm9ybS50ZXN0ghp3d3cxLnd3dy53ZWItcGxhdGZvcm0udGVzdIIad3d3Lnd3dzIu
d2ViLXBsYXRmb3JtLnRlc3SCGnd3dy53d3cxLndlYi1wbGF0Zm9ybS50ZXN0ghp3
d3cxLm5vdC13ZWItcGxhdGZvcm0udGVzdIIbd3d3Mi53d3cyLndlYi1wbGF0Zm9y
bS50ZXN0ght3d3cyLnd3dzEud2ViLXBsYXRmb3JtLnRlc3SCG3d3dzEud3d3Mi53
ZWItcGxhdGZvcm0udGVzdIIbd3d3MS53d3cxLndlYi1wbGF0Zm9ybS50ZXN0gh13
d3cud3d3Lm5vdC13ZWItcGxhdGZvcm0udGVzdIIeeG4tLWx2ZS02bGFkLndlYi1w
bGF0Zm9ybS50ZXN0gh53d3cud3d3Mi5ub3Qtd2ViLXBsYXRmb3JtLnRlc3SCHnd3
dzIud3d3Lm5vdC13ZWItcGxhdGZvcm0udGVzdIIed3d3MS53d3cubm90LXdlYi1w
bGF0Zm9ybS50ZXN0gh53d3cud3d3MS5ub3Qtd2ViLXBsYXRmb3JtLnRlc3SCH3d3
dzEud3d3MS5ub3Qtd2ViLXBsYXRmb3JtLnRlc3SCH3d3dzIud3d3Mi5ub3Qtd2Vi
LXBsYXRmb3JtLnRlc3SCH3d3dzIud3d3MS5ub3Qtd2ViLXBsYXRmb3JtLnRlc3SC
H3d3dzEud3d3Mi5ub3Qtd2ViLXBsYXRmb3JtLnRlc3SCInhuLS1sdmUtNmxhZC53
d3cud2ViLXBsYXRmb3JtLnRlc3SCInd3dy54bi0tbHZlLTZsYWQud2ViLXBsYXRm
b3JtLnRlc3SCInhuLS1sdmUtNmxhZC5ub3Qtd2ViLXBsYXRmb3JtLnRlc3SCI3hu
LS1sdmUtNmxhZC53d3cyLndlYi1wbGF0Zm9ybS50ZXN0giN3d3cyLnhuLS1sdmUt
NmxhZC53ZWItcGxhdGZvcm0udGVzdIIjeG4tLWx2ZS02bGFkLnd3dzEud2ViLXBs
YXRmb3JtLnRlc3SCI3d3dzEueG4tLWx2ZS02bGFkLndlYi1wbGF0Zm9ybS50ZXN0
giZ4bi0tbHZlLTZsYWQud3d3Lm5vdC13ZWItcGxhdGZvcm0udGVzdIImd3d3Lnhu
LS1sdmUtNmxhZC5ub3Qtd2ViLXBsYXRmb3JtLnRlc3SCJ3d3dzIueG4tLWx2ZS02
bGFkLm5vdC13ZWItcGxhdGZvcm0udGVzdIInd3d3MS54bi0tbHZlLTZsYWQubm90
LXdlYi1wbGF0Zm9ybS50ZXN0gid4bi0tbHZlLTZsYWQud3d3MS5ub3Qtd2ViLXBs
YXRmb3JtLnRlc3SCJ3huLS1sdmUtNmxhZC53d3cyLm5vdC13ZWItcGxhdGZvcm0u
dGVzdIIpeG4tLW44ajZkczUzbHd3a3JxaHYyOGEud2ViLXBsYXRmb3JtLnRlc3SC
K3huLS1sdmUtNmxhZC54bi0tbHZlLTZsYWQud2ViLXBsYXRmb3JtLnRlc3SCLXhu
LS1uOGo2ZHM1M2x3d2tycWh2MjhhLnd3dy53ZWItcGxhdGZvcm0udGVzdIItd3d3
LnhuLS1uOGo2ZHM1M2x3d2tycWh2MjhhLndlYi1wbGF0Zm9ybS50ZXN0gi14bi0t
bjhqNmRzNTNsd3drcnFodjI4YS5ub3Qtd2ViLXBsYXRmb3JtLnRlc3SCLnhuLS1u
OGo2ZHM1M2x3d2tycWh2MjhhLnd3dzEud2ViLXBsYXRmb3JtLnRlc3SCLnhuLS1u
OGo2ZHM1M2x3d2tycWh2MjhhLnd3dzIud2ViLXBsYXRmb3JtLnRlc3SCLnd3dzEu
eG4tLW44ajZkczUzbHd3a3JxaHYyOGEud2ViLXBsYXRmb3JtLnRlc3SCLnd3dzIu
eG4tLW44ajZkczUzbHd3a3JxaHYyOGEud2ViLXBsYXRmb3JtLnRlc3SCL3huLS1s
dmUtNmxhZC54bi0tbHZlLTZsYWQubm90LXdlYi1wbGF0Zm9ybS50ZXN0gjF3d3cu
eG4tLW44ajZkczUzbHd3a3JxaHYyOGEubm90LXdlYi1wbGF0Zm9ybS50ZXN0gjF4
bi0tbjhqNmRzNTNsd3drcnFodjI4YS53d3cubm90LXdlYi1wbGF0Zm9ybS50ZXN0
gjJ3d3cyLnhuLS1uOGo2ZHM1M2x3d2tycWh2MjhhLm5vdC13ZWItcGxhdGZvcm0u
dGVzdIIyeG4tLW44ajZkczUzbHd3a3JxaHYyOGEud3d3MS5ub3Qtd2ViLXBsYXRm
b3JtLnRlc3SCMnd3dzEueG4tLW44ajZkczUzbHd3a3JxaHYyOGEubm90LXdlYi1w
bGF0Zm9ybS50ZXN0gjJ4bi0tbjhqNmRzNTNsd3drcnFodjI4YS53d3cyLm5vdC13
ZWItcGxhdGZvcm0udGVzdII2eG4tLWx2ZS02bGFkLnhuLS1uOGo2ZHM1M2x3d2ty
cWh2MjhhLndlYi1wbGF0Zm9ybS50ZXN0gjZ4bi0tbjhqNmRzNTNsd3drcnFodjI4
YS54bi0tbHZlLTZsYWQud2ViLXBsYXRmb3JtLnRlc3SCOnhuLS1sdmUtNmxhZC54
bi0tbjhqNmRzNTNsd3drcnFodjI4YS5ub3Qtd2ViLXBsYXRmb3JtLnRlc3SCOnhu
LS1uOGo2ZHM1M2x3d2tycWh2MjhhLnhuLS1sdmUtNmxhZC5ub3Qtd2ViLXBsYXRm
b3JtLnRlc3SCQXhuLS1uOGo2ZHM1M2x3d2tycWh2MjhhLnhuLS1uOGo2ZHM1M2x3
d2tycWh2MjhhLndlYi1wbGF0Zm9ybS50ZXN0gkV4bi0tbjhqNmRzNTNsd3drcnFo
djI4YS54bi0tbjhqNmRzNTNsd3drcnFodjI4YS5ub3Qtd2ViLXBsYXRmb3JtLnRl
c3QwDQYJKoZIhvcNAQELBQADggEBAKCiM36Mg6bbACrud6I38r9MKVB16d+vDCVU
yfm9D42tnMBjpR1sO6UecKNsKNZ66vQbbTeg/FtrXqst4+0sllRVuS9HAWQHPDl7
6iULK/gI2JGo58GseVPKlfxlKBd/fbvk9s2OaBkaHYeiMys0iywUmphQzRvAY7jW
jXOtEqg3LaNO7PvIfqWjc8nzbq0sicIb+W+GmWU8BVewY3dtcMOPFJNoHYI9Szv2
7Lg+xcI7Mmd4f6QtCUrAU+TR4+rhIOPy7QfrwajvHAY+Snn61SwWmGCcr6IT6P0E
c5Ujt/v4gQsBm5+t9OZE1EUsc2E4MPcQwZTU9APgQGDyFE6Tujk=
-----END CERTIFICATE-----
