Certificate:
    Data:
        Version: 3 (0x2)
        Serial Number: 880939 (0xd712b)
        Signature Algorithm: sha256WithRSAEncryption
        Issuer: CN=web-platform-tests
        Validity
            Not Before: Sep 12 01:09:29 2025 GMT
            Not After : Sep 12 01:09:29 2026 GMT
        Subject: CN=web-platform.test
        Subject Public Key Info:
            Public Key Algorithm: rsaEncryption
                Public-Key: (2048 bit)
                Modulus:
                    00:cb:d0:b8:b9:33:7c:df:82:8b:6a:5c:40:09:66:
                    9e:9c:d6:2b:7e:33:77:42:d5:fa:9d:d3:97:82:3d:
                    41:1b:2a:9b:ce:e7:49:8a:2e:d2:b1:9d:e1:95:f7:
                    b1:13:9c:9d:1c:de:85:fc:1a:ec:fd:85:26:fd:4c:
                    91:1d:f5:17:ea:87:1f:9e:4c:bd:39:56:91:cc:11:
                    a8:cc:af:76:49:8c:1f:67:04:81:8f:f6:99:01:b1:
                    dd:75:26:d7:9f:5d:cb:c9:b5:af:60:71:34:33:bd:
                    f8:b5:07:ba:a4:05:20:fe:e7:c1:e6:36:ad:7a:72:
                    54:42:2c:c8:0b:01:7b:9f:59:1c:4e:47:da:37:36:
                    fe:90:be:4a:b3:74:7e:30:98:19:7b:48:dd:94:e9:
                    46:f7:2c:e2:9e:70:09:6f:fb:48:90:4a:aa:da:e8:
                    f6:36:db:1c:4b:32:6a:0d:5a:51:aa:08:fc:2b:76:
                    55:7a:ab:02:d2:d5:58:55:66:c1:c7:ad:ca:1c:af:
                    31:80:5e:42:d8:16:6d:f9:11:70:9f:38:da:fc:1c:
                    d6:eb:f6:74:3a:c6:2d:31:b8:cd:ee:ce:77:bc:e6:
                    42:a5:3a:df:46:be:6c:e5:23:21:bc:5a:fd:ff:d7:
                    2d:54:9c:0e:79:50:57:fc:00:5c:af:4d:43:ed:55:
                    3d:7f
                Exponent: 65537 (0x10001)
        X509v3 extensions:
            X509v3 Basic Constraints: 
                CA:FALSE
            X509v3 Subject Key Identifier: 
                C1:AA:2A:F0:46:E1:26:F5:16:A7:AF:3C:42:17:27:16:0A:BB:2B:F5
            X509v3 Authority Key Identifier: 
                A0:12:EA:CD:8D:55:AC:83:74:EE:75:92:57:BC:43:FD:EA:4F:5A:38
            X509v3 Key Usage: 
                Digital Signature, Non Repudiation, Key Encipherment
            X509v3 Extended Key Usage: 
                TLS Web Server Authentication
            X509v3 Subject Alternative Name: 
                DNS:web-platform.test, DNS:www.web-platform.test, DNS:not-web-platform.test, DNS:www1.web-platform.test, DNS:www2.web-platform.test, DNS:www.not-web-platform.test, DNS:www.www.web-platform.test, DNS:www.www1.web-platform.test, DNS:www1.not-web-platform.test, DNS:www2.www.web-platform.test, DNS:www.www2.web-platform.test, DNS:www2.not-web-platform.test, DNS:www1.www.web-platform.test, DNS:www1.www2.web-platform.test, DNS:www2.www2.web-platform.test, DNS:www2.www1.web-platform.test, DNS:www1.www1.web-platform.test, DNS:www.www.not-web-platform.test, DNS:www.www2.not-web-platform.test, DNS:www1.www.not-web-platform.test, DNS:www2.www.not-web-platform.test, DNS:www.www1.not-web-platform.test, DNS:xn--lve-6lad.web-platform.test, DNS:www1.www2.not-web-platform.test, DNS:www1.www1.not-web-platform.test, DNS:www2.www2.not-web-platform.test, DNS:www2.www1.not-web-platform.test, DNS:xn--lve-6lad.not-web-platform.test, DNS:xn--lve-6lad.www.web-platform.test, DNS:www.xn--lve-6lad.web-platform.test, DNS:xn--lve-6lad.www1.web-platform.test, DNS:xn--lve-6lad.www2.web-platform.test, DNS:www2.xn--lve-6lad.web-platform.test, DNS:www1.xn--lve-6lad.web-platform.test, DNS:www.xn--lve-6lad.not-web-platform.test, DNS:xn--lve-6lad.www.not-web-platform.test, DNS:xn--lve-6lad.www2.not-web-platform.test, DNS:www2.xn--lve-6lad.not-web-platform.test, DNS:xn--lve-6lad.www1.not-web-platform.test, DNS:www1.xn--lve-6lad.not-web-platform.test, DNS:xn--n8j6ds53lwwkrqhv28a.web-platform.test, DNS:xn--lve-6lad.xn--lve-6lad.web-platform.test, DNS:xn--n8j6ds53lwwkrqhv28a.www.web-platform.test, DNS:xn--n8j6ds53lwwkrqhv28a.not-web-platform.test, DNS:www.xn--n8j6ds53lwwkrqhv28a.web-platform.test, DNS:xn--n8j6ds53lwwkrqhv28a.www1.web-platform.test, DNS:www2.xn--n8j6ds53lwwkrqhv28a.web-platform.test, DNS:xn--n8j6ds53lwwkrqhv28a.www2.web-platform.test, DNS:www1.xn--n8j6ds53lwwkrqhv28a.web-platform.test, DNS:xn--lve-6lad.xn--lve-6lad.not-web-platform.test, DNS:xn--n8j6ds53lwwkrqhv28a.www.not-web-platform.test, DNS:www.xn--n8j6ds53lwwkrqhv28a.not-web-platform.test, DNS:xn--n8j6ds53lwwkrqhv28a.www1.not-web-platform.test, DNS:xn--n8j6ds53lwwkrqhv28a.www2.not-web-platform.test, DNS:www1.xn--n8j6ds53lwwkrqhv28a.not-web-platform.test, DNS:www2.xn--n8j6ds53lwwkrqhv28a.not-web-platform.test, DNS:xn--n8j6ds53lwwkrqhv28a.xn--lve-6lad.web-platform.test, DNS:xn--lve-6lad.xn--n8j6ds53lwwkrqhv28a.web-platform.test, DNS:xn--lve-6lad.xn--n8j6ds53lwwkrqhv28a.not-web-platform.test, DNS:xn--n8j6ds53lwwkrqhv28a.xn--lve-6lad.not-web-platform.test, DNS:xn--n8j6ds53lwwkrqhv28a.xn--n8j6ds53lwwkrqhv28a.web-platform.test, DNS:xn--n8j6ds53lwwkrqhv28a.xn--n8j6ds53lwwkrqhv28a.not-web-platform.test
    Signature Algorithm: sha256WithRSAEncryption
    Signature Value:
        37:5d:b7:9e:54:04:7e:a5:80:5e:cc:07:e6:44:0c:b4:fd:cf:
        b9:ed:13:90:46:f2:84:9b:31:85:98:27:ee:70:7a:a2:c7:ce:
        9d:6b:ac:2b:f2:e4:95:af:b7:53:d9:6d:66:ca:56:a8:71:b0:
        22:f2:ed:98:13:c0:ab:d5:3c:6a:b9:6c:c4:54:0f:24:ad:ab:
        1a:eb:7f:75:b6:14:71:38:ab:53:5b:e8:52:84:ff:e4:1a:99:
        3f:55:0c:40:ab:93:ec:84:75:c6:94:89:ac:40:f0:30:f1:92:
        c4:0a:78:a7:df:e8:37:0b:86:2c:e8:30:02:79:14:0c:dd:83:
        98:26:8b:36:1e:42:46:24:22:fa:20:ca:e9:6a:f9:7c:28:a2:
        7c:75:8d:a3:a7:b0:41:93:2c:2a:de:ed:1c:2c:34:c2:07:7d:
        e3:ce:9c:bb:b9:de:e0:9a:e1:58:81:f0:46:b2:f2:14:d7:97:
        6e:8d:47:19:1c:6d:76:aa:21:27:b4:04:07:14:8b:d3:fb:d5:
        b1:86:fe:cc:b0:3b:19:ac:1b:57:a1:0d:90:77:a5:5e:52:b9:
        32:f6:56:57:b1:b4:e8:0c:fe:eb:90:1e:c3:94:d0:c1:dd:4c:
        59:61:a1:6b:01:0f:41:f1:53:6a:c1:a1:f3:e9:48:05:15:c7:
        2a:c8:f1:73
-----BEGIN CERTIFICATE-----
MIIMsjCCC5qgAwIBAgIDDXErMA0GCSqGSIb3DQEBCwUAMB0xGzAZBgNVBAMMEndl
Yi1wbGF0Zm9ybS10ZXN0czAeFw0yNTA5MTIwMTA5MjlaFw0yNjA5MTIwMTA5Mjla
MBwxGjAYBgNVBAMMEXdlYi1wbGF0Zm9ybS50ZXN0MIIBIjANBgkqhkiG9w0BAQEF
AAOCAQ8AMIIBCgKCAQEAy9C4uTN834KLalxACWaenNYrfjN3QtX6ndOXgj1BGyqb
zudJii7SsZ3hlfexE5ydHN6F/Brs/YUm/UyRHfUX6ocfnky9OVaRzBGozK92SYwf
ZwSBj/aZAbHddSbXn13LybWvYHE0M734tQe6pAUg/ufB5jatenJUQizICwF7n1kc
TkfaNzb+kL5Ks3R+MJgZe0jdlOlG9yzinnAJb/tIkEqq2uj2NtscSzJqDVpRqgj8
K3ZVeqsC0tVYVWbBx63KHK8xgF5C2BZt+RFwnzja/BzW6/Z0OsYtMbjN7s53vOZC
pTrfRr5s5SMhvFr9/9ctVJwOeVBX/ABcr01D7VU9fwIDAQABo4IJ+jCCCfYwCQYD
VR0TBAIwADAdBgNVHQ4EFgQUwaoq8EbhJvUWp688QhcnFgq7K/UwHwYDVR0jBBgw
FoAUoBLqzY1VrIN07nWSV7xD/epPWjgwCwYDVR0PBAQDAgXgMBMGA1UdJQQMMAoG
CCsGAQUFBwMBMIIJhQYDVR0RBIIJfDCCCXiCEXdlYi1wbGF0Zm9ybS50ZXN0ghV3
d3cud2ViLXBsYXRmb3JtLnRlc3SCFW5vdC13ZWItcGxhdGZvcm0udGVzdIIWd3d3
MS53ZWItcGxhdGZvcm0udGVzdIIWd3d3Mi53ZWItcGxhdGZvcm0udGVzdIIZd3d3
Lm5vdC13ZWItcGxhdGZvcm0udGVzdIIZd3d3Lnd3dy53ZWItcGxhdGZvcm0udGVz
dIIad3d3Lnd3dzEud2ViLXBsYXRmb3JtLnRlc3SCGnd3dzEubm90LXdlYi1wbGF0
Zm9ybS50ZXN0ghp3d3cyLnd3dy53ZWItcGxhdGZvcm0udGVzdIIad3d3Lnd3dzIu
d2ViLXBsYXRmb3JtLnRlc3SCGnd3dzIubm90LXdlYi1wbGF0Zm9ybS50ZXN0ghp3
d3cxLnd3dy53ZWItcGxhdGZvcm0udGVzdIIbd3d3MS53d3cyLndlYi1wbGF0Zm9y
bS50ZXN0ght3d3cyLnd3dzIud2ViLXBsYXRmb3JtLnRlc3SCG3d3dzIud3d3MS53
ZWItcGxhdGZvcm0udGVzdIIbd3d3MS53d3cxLndlYi1wbGF0Zm9ybS50ZXN0gh13
d3cud3d3Lm5vdC13ZWItcGxhdGZvcm0udGVzdIIed3d3Lnd3dzIubm90LXdlYi1w
bGF0Zm9ybS50ZXN0gh53d3cxLnd3dy5ub3Qtd2ViLXBsYXRmb3JtLnRlc3SCHnd3
dzIud3d3Lm5vdC13ZWItcGxhdGZvcm0udGVzdIIed3d3Lnd3dzEubm90LXdlYi1w
bGF0Zm9ybS50ZXN0gh54bi0tbHZlLTZsYWQud2ViLXBsYXRmb3JtLnRlc3SCH3d3
dzEud3d3Mi5ub3Qtd2ViLXBsYXRmb3JtLnRlc3SCH3d3dzEud3d3MS5ub3Qtd2Vi
LXBsYXRmb3JtLnRlc3SCH3d3dzIud3d3Mi5ub3Qtd2ViLXBsYXRmb3JtLnRlc3SC
H3d3dzIud3d3MS5ub3Qtd2ViLXBsYXRmb3JtLnRlc3SCInhuLS1sdmUtNmxhZC5u
b3Qtd2ViLXBsYXRmb3JtLnRlc3SCInhuLS1sdmUtNmxhZC53d3cud2ViLXBsYXRm
b3JtLnRlc3SCInd3dy54bi0tbHZlLTZsYWQud2ViLXBsYXRmb3JtLnRlc3SCI3hu
LS1sdmUtNmxhZC53d3cxLndlYi1wbGF0Zm9ybS50ZXN0giN4bi0tbHZlLTZsYWQu
d3d3Mi53ZWItcGxhdGZvcm0udGVzdIIjd3d3Mi54bi0tbHZlLTZsYWQud2ViLXBs
YXRmb3JtLnRlc3SCI3d3dzEueG4tLWx2ZS02bGFkLndlYi1wbGF0Zm9ybS50ZXN0
giZ3d3cueG4tLWx2ZS02bGFkLm5vdC13ZWItcGxhdGZvcm0udGVzdIImeG4tLWx2
ZS02bGFkLnd3dy5ub3Qtd2ViLXBsYXRmb3JtLnRlc3SCJ3huLS1sdmUtNmxhZC53
d3cyLm5vdC13ZWItcGxhdGZvcm0udGVzdIInd3d3Mi54bi0tbHZlLTZsYWQubm90
LXdlYi1wbGF0Zm9ybS50ZXN0gid4bi0tbHZlLTZsYWQud3d3MS5ub3Qtd2ViLXBs
YXRmb3JtLnRlc3SCJ3d3dzEueG4tLWx2ZS02bGFkLm5vdC13ZWItcGxhdGZvcm0u
dGVzdIIpeG4tLW44ajZkczUzbHd3a3JxaHYyOGEud2ViLXBsYXRmb3JtLnRlc3SC
K3huLS1sdmUtNmxhZC54bi0tbHZlLTZsYWQud2ViLXBsYXRmb3JtLnRlc3SCLXhu
LS1uOGo2ZHM1M2x3d2tycWh2MjhhLnd3dy53ZWItcGxhdGZvcm0udGVzdIIteG4t
LW44ajZkczUzbHd3a3JxaHYyOGEubm90LXdlYi1wbGF0Zm9ybS50ZXN0gi13d3cu
eG4tLW44ajZkczUzbHd3a3JxaHYyOGEud2ViLXBsYXRmb3JtLnRlc3SCLnhuLS1u
OGo2ZHM1M2x3d2tycWh2MjhhLnd3dzEud2ViLXBsYXRmb3JtLnRlc3SCLnd3dzIu
eG4tLW44ajZkczUzbHd3a3JxaHYyOGEud2ViLXBsYXRmb3JtLnRlc3SCLnhuLS1u
OGo2ZHM1M2x3d2tycWh2MjhhLnd3dzIud2ViLXBsYXRmb3JtLnRlc3SCLnd3dzEu
eG4tLW44ajZkczUzbHd3a3JxaHYyOGEud2ViLXBsYXRmb3JtLnRlc3SCL3huLS1s
dmUtNmxhZC54bi0tbHZlLTZsYWQubm90LXdlYi1wbGF0Zm9ybS50ZXN0gjF4bi0t
bjhqNmRzNTNsd3drcnFodjI4YS53d3cubm90LXdlYi1wbGF0Zm9ybS50ZXN0gjF3
d3cueG4tLW44ajZkczUzbHd3a3JxaHYyOGEubm90LXdlYi1wbGF0Zm9ybS50ZXN0
gjJ4bi0tbjhqNmRzNTNsd3drcnFodjI4YS53d3cxLm5vdC13ZWItcGxhdGZvcm0u
dGVzdIIyeG4tLW44ajZkczUzbHd3a3JxaHYyOGEud3d3Mi5ub3Qtd2ViLXBsYXRm
b3JtLnRlc3SCMnd3dzEueG4tLW44ajZkczUzbHd3a3JxaHYyOGEubm90LXdlYi1w
bGF0Zm9ybS50ZXN0gjJ3d3cyLnhuLS1uOGo2ZHM1M2x3d2tycWh2MjhhLm5vdC13
ZWItcGxhdGZvcm0udGVzdII2eG4tLW44ajZkczUzbHd3a3JxaHYyOGEueG4tLWx2
ZS02bGFkLndlYi1wbGF0Zm9ybS50ZXN0gjZ4bi0tbHZlLTZsYWQueG4tLW44ajZk
czUzbHd3a3JxaHYyOGEud2ViLXBsYXRmb3JtLnRlc3SCOnhuLS1sdmUtNmxhZC54
bi0tbjhqNmRzNTNsd3drcnFodjI4YS5ub3Qtd2ViLXBsYXRmb3JtLnRlc3SCOnhu
LS1uOGo2ZHM1M2x3d2tycWh2MjhhLnhuLS1sdmUtNmxhZC5ub3Qtd2ViLXBsYXRm
b3JtLnRlc3SCQXhuLS1uOGo2ZHM1M2x3d2tycWh2MjhhLnhuLS1uOGo2ZHM1M2x3
d2tycWh2MjhhLndlYi1wbGF0Zm9ybS50ZXN0gkV4bi0tbjhqNmRzNTNsd3drcnFo
djI4YS54bi0tbjhqNmRzNTNsd3drcnFodjI4YS5ub3Qtd2ViLXBsYXRmb3JtLnRl
c3QwDQYJKoZIhvcNAQELBQADggEBADddt55UBH6lgF7MB+ZEDLT9z7ntE5BG8oSb
MYWYJ+5weqLHzp1rrCvy5JWvt1PZbWbKVqhxsCLy7ZgTwKvVPGq5bMRUDyStqxrr
f3W2FHE4q1Nb6FKE/+QamT9VDECrk+yEdcaUiaxA8DDxksQKeKff6DcLhizoMAJ5
FAzdg5gmizYeQkYkIvogyulq+Xwoonx1jaOnsEGTLCre7RwsNMIHfePOnLu53uCa
4ViB8Eay8hTXl26NRxkcbXaqISe0BAcUi9P71bGG/sywOxmsG1ehDZB3pV5SuTL2
VlextOgM/uuQHsOU0MHdTFlhoWsBD0HxU2rBofPpSAUVxyrI8XM=
-----END CERTIFICATE-----
