Certificate:
    Data:
        Version: 3 (0x2)
        Serial Number: 465926 (0x71c06)
        Signature Algorithm: sha256WithRSAEncryption
        Issuer: CN=web-platform-tests
        Validity
            Not Before: Nov 12 01:05:01 2024 GMT
            Not After : Nov 12 01:05:01 2025 GMT
        Subject: CN=web-platform.test
        Subject Public Key Info:
            Public Key Algorithm: rsaEncryption
                RSA Public-Key: (2048 bit)
                Modulus:
                    00:cc:fb:0f:94:a8:f4:64:c3:ea:48:fd:c4:09:33:
                    7d:6e:70:0e:f9:af:35:42:5e:19:4d:a7:64:b8:07:
                    cd:cd:12:68:87:5b:ef:7f:34:68:b7:fb:d6:b6:80:
                    85:0f:1d:df:f8:bb:56:ab:e7:96:35:29:1e:6b:bc:
                    c8:6a:9b:1a:4b:d5:11:e3:16:82:17:59:f4:14:bb:
                    37:f6:4c:33:cf:1a:e5:e7:45:45:33:ee:c4:db:eb:
                    42:e6:5d:20:41:e3:ea:03:22:0c:df:9e:95:d7:9e:
                    f7:ff:db:71:38:a9:73:36:d0:a3:f7:99:e2:df:a7:
                    5f:06:74:75:2b:ca:08:1b:a8:af:15:d6:38:f0:1d:
                    39:8f:bc:7e:2b:f9:4c:ba:84:d4:03:9b:07:69:ba:
                    d4:27:97:8f:68:6d:ac:8b:4a:ae:41:51:1f:cc:25:
                    02:72:46:52:b1:08:bf:04:1c:3e:8b:4a:45:aa:8f:
                    56:29:b8:aa:a5:d4:5b:f7:48:c8:d2:a1:a6:33:25:
                    60:32:f6:86:a7:8b:55:87:5e:55:e2:9d:95:3a:72:
                    22:9a:ec:6f:78:02:0e:80:bf:21:9e:25:3b:4c:5a:
                    74:92:1e:0a:78:44:52:92:20:ef:d4:17:7d:80:5f:
                    47:cc:ef:9d:37:fa:35:da:5d:54:6b:0b:1e:49:2f:
                    81:f1
                Exponent: 65537 (0x10001)
        X509v3 extensions:
            X509v3 Basic Constraints: 
                CA:FALSE
            X509v3 Subject Key Identifier: 
                CE:96:36:09:FD:E7:28:07:B1:27:22:70:4B:79:0C:39:6E:A2:AE:C4
            X509v3 Authority Key Identifier: 
                keyid:82:2E:D2:29:ED:0B:29:28:D3:60:5B:FB:76:A3:01:02:53:5F:66:BB

            X509v3 Key Usage: 
                Digital Signature, Non Repudiation, Key Encipherment
            X509v3 Extended Key Usage: 
                TLS Web Server Authentication
            X509v3 Subject Alternative Name: 
                DNS:web-platform.test, DNS:not-web-platform.test, DNS:www.web-platform.test, DNS:www1.web-platform.test, DNS:www2.web-platform.test, DNS:www.not-web-platform.test, DNS:www.www.web-platform.test, DNS:www.www2.web-platform.test, DNS:www.www1.web-platform.test, DNS:www2.not-web-platform.test, DNS:www1.www.web-platform.test, DNS:www2.www.web-platform.test, DNS:www1.not-web-platform.test, DNS:www1.www2.web-platform.test, DNS:www2.www1.web-platform.test, DNS:www1.www1.web-platform.test, DNS:www2.www2.web-platform.test, DNS:www.www.not-web-platform.test, DNS:xn--lve-6lad.web-platform.test, DNS:www2.www.not-web-platform.test, DNS:www1.www.not-web-platform.test, DNS:www.www2.not-web-platform.test, DNS:www.www1.not-web-platform.test, DNS:www2.www1.not-web-platform.test, DNS:www1.www1.not-web-platform.test, DNS:www2.www2.not-web-platform.test, DNS:www1.www2.not-web-platform.test, DNS:www.xn--lve-6lad.web-platform.test, DNS:xn--lve-6lad.www.web-platform.test, DNS:xn--lve-6lad.not-web-platform.test, DNS:xn--lve-6lad.www2.web-platform.test, DNS:xn--lve-6lad.www1.web-platform.test, DNS:www2.xn--lve-6lad.web-platform.test, DNS:www1.xn--lve-6lad.web-platform.test, DNS:www.xn--lve-6lad.not-web-platform.test, DNS:xn--lve-6lad.www.not-web-platform.test, DNS:xn--lve-6lad.www1.not-web-platform.test, DNS:www2.xn--lve-6lad.not-web-platform.test, DNS:www1.xn--lve-6lad.not-web-platform.test, DNS:xn--lve-6lad.www2.not-web-platform.test, DNS:xn--n8j6ds53lwwkrqhv28a.web-platform.test, DNS:xn--lve-6lad.xn--lve-6lad.web-platform.test, DNS:xn--n8j6ds53lwwkrqhv28a.www.web-platform.test, DNS:www.xn--n8j6ds53lwwkrqhv28a.web-platform.test, DNS:xn--n8j6ds53lwwkrqhv28a.not-web-platform.test, DNS:xn--n8j6ds53lwwkrqhv28a.www2.web-platform.test, DNS:www1.xn--n8j6ds53lwwkrqhv28a.web-platform.test, DNS:xn--n8j6ds53lwwkrqhv28a.www1.web-platform.test, DNS:www2.xn--n8j6ds53lwwkrqhv28a.web-platform.test, DNS:xn--lve-6lad.xn--lve-6lad.not-web-platform.test, DNS:www.xn--n8j6ds53lwwkrqhv28a.not-web-platform.test, DNS:xn--n8j6ds53lwwkrqhv28a.www.not-web-platform.test, DNS:www2.xn--n8j6ds53lwwkrqhv28a.not-web-platform.test, DNS:xn--n8j6ds53lwwkrqhv28a.www2.not-web-platform.test, DNS:www1.xn--n8j6ds53lwwkrqhv28a.not-web-platform.test, DNS:xn--n8j6ds53lwwkrqhv28a.www1.not-web-platform.test, DNS:xn--n8j6ds53lwwkrqhv28a.xn--lve-6lad.web-platform.test, DNS:xn--lve-6lad.xn--n8j6ds53lwwkrqhv28a.web-platform.test, DNS:xn--lve-6lad.xn--n8j6ds53lwwkrqhv28a.not-web-platform.test, DNS:xn--n8j6ds53lwwkrqhv28a.xn--lve-6lad.not-web-platform.test, DNS:xn--n8j6ds53lwwkrqhv28a.xn--n8j6ds53lwwkrqhv28a.web-platform.test, DNS:xn--n8j6ds53lwwkrqhv28a.xn--n8j6ds53lwwkrqhv28a.not-web-platform.test
    Signature Algorithm: sha256WithRSAEncryption
         9c:87:f9:77:91:b7:31:f8:f4:1b:8a:f1:30:71:2d:fb:df:88:
         fe:33:9c:f6:a8:0e:0d:1f:4d:bb:9e:8f:8d:cf:ed:b3:c5:ef:
         4d:d6:1d:aa:1c:e4:8a:ad:e3:a4:35:70:43:56:56:f3:bd:3c:
         f9:fb:06:29:ce:d7:56:af:7a:51:a0:b6:26:45:43:90:aa:86:
         26:ad:2e:7f:04:37:cd:11:6f:ba:b1:fa:75:fb:83:7f:4b:04:
         38:57:41:b7:49:a2:fe:4f:68:b1:25:fc:eb:ba:c6:8a:29:0e:
         3b:7f:57:81:73:f7:52:0d:c9:4c:e2:15:1a:60:58:3a:0a:58:
         0d:77:4d:0c:dd:e6:f9:fe:f4:2c:b7:25:31:b0:a5:64:4c:71:
         44:72:2b:1c:e6:6d:32:37:a2:9d:b6:c9:be:06:74:fc:70:83:
         69:8a:d6:24:a4:6b:90:38:e0:58:32:53:cd:b6:c2:40:0e:0d:
         0e:bc:a6:1a:7d:de:52:ca:e0:f7:5a:a1:05:e6:ab:0c:c2:d4:
         1d:a3:17:c3:24:1d:2f:27:74:d8:01:56:e6:9d:56:0a:73:9e:
         6b:bd:d9:e1:2d:67:a2:b6:4d:2e:cb:34:f7:e7:5d:2f:0c:a7:
         af:33:0d:82:ae:81:ab:8a:67:ca:99:6d:35:58:83:50:cc:7b:
         ac:cc:58:8e
-----BEGIN CERTIFICATE-----
MIIMsjCCC5qgAwIBAgIDBxwGMA0GCSqGSIb3DQEBCwUAMB0xGzAZBgNVBAMMEndl
Yi1wbGF0Zm9ybS10ZXN0czAeFw0yNDExMTIwMTA1MDFaFw0yNTExMTIwMTA1MDFa
MBwxGjAYBgNVBAMMEXdlYi1wbGF0Zm9ybS50ZXN0MIIBIjANBgkqhkiG9w0BAQEF
AAOCAQ8AMIIBCgKCAQEAzPsPlKj0ZMPqSP3ECTN9bnAO+a81Ql4ZTadkuAfNzRJo
h1vvfzRot/vWtoCFDx3f+LtWq+eWNSkea7zIapsaS9UR4xaCF1n0FLs39kwzzxrl
50VFM+7E2+tC5l0gQePqAyIM356V1573/9txOKlzNtCj95ni36dfBnR1K8oIG6iv
FdY48B05j7x+K/lMuoTUA5sHabrUJ5ePaG2si0quQVEfzCUCckZSsQi/BBw+i0pF
qo9WKbiqpdRb90jI0qGmMyVgMvaGp4tVh15V4p2VOnIimuxveAIOgL8hniU7TFp0
kh4KeERSkiDv1Bd9gF9HzO+dN/o12l1UawseSS+B8QIDAQABo4IJ+jCCCfYwCQYD
VR0TBAIwADAdBgNVHQ4EFgQUzpY2Cf3nKAexJyJwS3kMOW6irsQwHwYDVR0jBBgw
FoAUgi7SKe0LKSjTYFv7dqMBAlNfZrswCwYDVR0PBAQDAgXgMBMGA1UdJQQMMAoG
CCsGAQUFBwMBMIIJhQYDVR0RBIIJfDCCCXiCEXdlYi1wbGF0Zm9ybS50ZXN0ghVu
b3Qtd2ViLXBsYXRmb3JtLnRlc3SCFXd3dy53ZWItcGxhdGZvcm0udGVzdIIWd3d3
MS53ZWItcGxhdGZvcm0udGVzdIIWd3d3Mi53ZWItcGxhdGZvcm0udGVzdIIZd3d3
Lm5vdC13ZWItcGxhdGZvcm0udGVzdIIZd3d3Lnd3dy53ZWItcGxhdGZvcm0udGVz
dIIad3d3Lnd3dzIud2ViLXBsYXRmb3JtLnRlc3SCGnd3dy53d3cxLndlYi1wbGF0
Zm9ybS50ZXN0ghp3d3cyLm5vdC13ZWItcGxhdGZvcm0udGVzdIIad3d3MS53d3cu
d2ViLXBsYXRmb3JtLnRlc3SCGnd3dzIud3d3LndlYi1wbGF0Zm9ybS50ZXN0ghp3
d3cxLm5vdC13ZWItcGxhdGZvcm0udGVzdIIbd3d3MS53d3cyLndlYi1wbGF0Zm9y
bS50ZXN0ght3d3cyLnd3dzEud2ViLXBsYXRmb3JtLnRlc3SCG3d3dzEud3d3MS53
ZWItcGxhdGZvcm0udGVzdIIbd3d3Mi53d3cyLndlYi1wbGF0Zm9ybS50ZXN0gh13
d3cud3d3Lm5vdC13ZWItcGxhdGZvcm0udGVzdIIeeG4tLWx2ZS02bGFkLndlYi1w
bGF0Zm9ybS50ZXN0gh53d3cyLnd3dy5ub3Qtd2ViLXBsYXRmb3JtLnRlc3SCHnd3
dzEud3d3Lm5vdC13ZWItcGxhdGZvcm0udGVzdIIed3d3Lnd3dzIubm90LXdlYi1w
bGF0Zm9ybS50ZXN0gh53d3cud3d3MS5ub3Qtd2ViLXBsYXRmb3JtLnRlc3SCH3d3
dzIud3d3MS5ub3Qtd2ViLXBsYXRmb3JtLnRlc3SCH3d3dzEud3d3MS5ub3Qtd2Vi
LXBsYXRmb3JtLnRlc3SCH3d3dzIud3d3Mi5ub3Qtd2ViLXBsYXRmb3JtLnRlc3SC
H3d3dzEud3d3Mi5ub3Qtd2ViLXBsYXRmb3JtLnRlc3SCInd3dy54bi0tbHZlLTZs
YWQud2ViLXBsYXRmb3JtLnRlc3SCInhuLS1sdmUtNmxhZC53d3cud2ViLXBsYXRm
b3JtLnRlc3SCInhuLS1sdmUtNmxhZC5ub3Qtd2ViLXBsYXRmb3JtLnRlc3SCI3hu
LS1sdmUtNmxhZC53d3cyLndlYi1wbGF0Zm9ybS50ZXN0giN4bi0tbHZlLTZsYWQu
d3d3MS53ZWItcGxhdGZvcm0udGVzdIIjd3d3Mi54bi0tbHZlLTZsYWQud2ViLXBs
YXRmb3JtLnRlc3SCI3d3dzEueG4tLWx2ZS02bGFkLndlYi1wbGF0Zm9ybS50ZXN0
giZ3d3cueG4tLWx2ZS02bGFkLm5vdC13ZWItcGxhdGZvcm0udGVzdIImeG4tLWx2
ZS02bGFkLnd3dy5ub3Qtd2ViLXBsYXRmb3JtLnRlc3SCJ3huLS1sdmUtNmxhZC53
d3cxLm5vdC13ZWItcGxhdGZvcm0udGVzdIInd3d3Mi54bi0tbHZlLTZsYWQubm90
LXdlYi1wbGF0Zm9ybS50ZXN0gid3d3cxLnhuLS1sdmUtNmxhZC5ub3Qtd2ViLXBs
YXRmb3JtLnRlc3SCJ3huLS1sdmUtNmxhZC53d3cyLm5vdC13ZWItcGxhdGZvcm0u
dGVzdIIpeG4tLW44ajZkczUzbHd3a3JxaHYyOGEud2ViLXBsYXRmb3JtLnRlc3SC
K3huLS1sdmUtNmxhZC54bi0tbHZlLTZsYWQud2ViLXBsYXRmb3JtLnRlc3SCLXhu
LS1uOGo2ZHM1M2x3d2tycWh2MjhhLnd3dy53ZWItcGxhdGZvcm0udGVzdIItd3d3
LnhuLS1uOGo2ZHM1M2x3d2tycWh2MjhhLndlYi1wbGF0Zm9ybS50ZXN0gi14bi0t
bjhqNmRzNTNsd3drcnFodjI4YS5ub3Qtd2ViLXBsYXRmb3JtLnRlc3SCLnhuLS1u
OGo2ZHM1M2x3d2tycWh2MjhhLnd3dzIud2ViLXBsYXRmb3JtLnRlc3SCLnd3dzEu
eG4tLW44ajZkczUzbHd3a3JxaHYyOGEud2ViLXBsYXRmb3JtLnRlc3SCLnhuLS1u
OGo2ZHM1M2x3d2tycWh2MjhhLnd3dzEud2ViLXBsYXRmb3JtLnRlc3SCLnd3dzIu
eG4tLW44ajZkczUzbHd3a3JxaHYyOGEud2ViLXBsYXRmb3JtLnRlc3SCL3huLS1s
dmUtNmxhZC54bi0tbHZlLTZsYWQubm90LXdlYi1wbGF0Zm9ybS50ZXN0gjF3d3cu
eG4tLW44ajZkczUzbHd3a3JxaHYyOGEubm90LXdlYi1wbGF0Zm9ybS50ZXN0gjF4
bi0tbjhqNmRzNTNsd3drcnFodjI4YS53d3cubm90LXdlYi1wbGF0Zm9ybS50ZXN0
gjJ3d3cyLnhuLS1uOGo2ZHM1M2x3d2tycWh2MjhhLm5vdC13ZWItcGxhdGZvcm0u
dGVzdIIyeG4tLW44ajZkczUzbHd3a3JxaHYyOGEud3d3Mi5ub3Qtd2ViLXBsYXRm
b3JtLnRlc3SCMnd3dzEueG4tLW44ajZkczUzbHd3a3JxaHYyOGEubm90LXdlYi1w
bGF0Zm9ybS50ZXN0gjJ4bi0tbjhqNmRzNTNsd3drcnFodjI4YS53d3cxLm5vdC13
ZWItcGxhdGZvcm0udGVzdII2eG4tLW44ajZkczUzbHd3a3JxaHYyOGEueG4tLWx2
ZS02bGFkLndlYi1wbGF0Zm9ybS50ZXN0gjZ4bi0tbHZlLTZsYWQueG4tLW44ajZk
czUzbHd3a3JxaHYyOGEud2ViLXBsYXRmb3JtLnRlc3SCOnhuLS1sdmUtNmxhZC54
bi0tbjhqNmRzNTNsd3drcnFodjI4YS5ub3Qtd2ViLXBsYXRmb3JtLnRlc3SCOnhu
LS1uOGo2ZHM1M2x3d2tycWh2MjhhLnhuLS1sdmUtNmxhZC5ub3Qtd2ViLXBsYXRm
b3JtLnRlc3SCQXhuLS1uOGo2ZHM1M2x3d2tycWh2MjhhLnhuLS1uOGo2ZHM1M2x3
d2tycWh2MjhhLndlYi1wbGF0Zm9ybS50ZXN0gkV4bi0tbjhqNmRzNTNsd3drcnFo
djI4YS54bi0tbjhqNmRzNTNsd3drcnFodjI4YS5ub3Qtd2ViLXBsYXRmb3JtLnRl
c3QwDQYJKoZIhvcNAQELBQADggEBAJyH+XeRtzH49BuK8TBxLfvfiP4znPaoDg0f
Tbuej43P7bPF703WHaoc5Iqt46Q1cENWVvO9PPn7BinO11avelGgtiZFQ5Cqhiat
Ln8EN80Rb7qx+nX7g39LBDhXQbdJov5PaLEl/Ou6xoopDjt/V4Fz91INyUziFRpg
WDoKWA13TQzd5vn+9Cy3JTGwpWRMcURyKxzmbTI3op22yb4GdPxwg2mK1iSka5A4
4FgyU822wkAODQ68php93lLK4PdaoQXmqwzC1B2jF8MkHS8ndNgBVuadVgpznmu9
2eEtZ6K2TS7LNPfnXS8Mp68zDYKugauKZ8qZbTVYg1DMe6zMWI4=
-----END CERTIFICATE-----
