Certificate:
    Data:
        Version: 3 (0x2)
        Serial Number: 478449 (0x74cf1)
        Signature Algorithm: sha256WithRSAEncryption
        Issuer: CN=web-platform-tests
        Validity
            Not Before: Jan 12 01:27:46 2026 GMT
            Not After : Jan 12 01:27:46 2027 GMT
        Subject: CN=web-platform.test
        Subject Public Key Info:
            Public Key Algorithm: rsaEncryption
                Public-Key: (2048 bit)
                Modulus:
                    00:92:45:d7:39:09:4b:03:5d:f4:67:c3:a1:d8:72:
                    76:15:e9:29:28:05:95:c5:9f:e7:74:12:8b:5b:2b:
                    dc:d8:e1:15:98:21:e4:30:b3:23:d3:c2:fb:ac:60:
                    f6:13:7c:9a:64:94:72:15:ad:59:97:f3:d1:13:6b:
                    b6:2b:71:82:93:85:68:3b:e6:f3:d5:f3:bd:c0:92:
                    38:f4:52:21:24:fb:71:c0:dc:67:62:fe:3c:2b:e9:
                    7a:1b:02:64:a9:48:aa:45:ee:1d:ff:7e:c6:6d:26:
                    86:65:f0:92:31:c9:2c:f9:b8:74:60:e4:4f:cb:2c:
                    06:e7:e6:ab:a5:c0:b0:dc:c4:10:b5:c0:de:a1:8d:
                    d3:32:af:ef:cd:35:82:92:05:ee:aa:7e:51:53:22:
                    2c:10:df:9e:6f:00:71:79:83:50:15:22:9c:9d:55:
                    67:52:a8:71:f3:2e:7f:55:59:10:4e:34:9f:3a:7c:
                    c6:8b:04:0e:0d:8c:c7:1d:3c:f5:5d:63:94:15:82:
                    d8:b2:ff:57:b7:3d:8d:30:2e:fa:ea:cd:40:d4:b2:
                    29:02:bf:a1:38:2e:76:07:80:c7:d0:48:e6:62:31:
                    01:57:31:97:a1:bf:92:1a:b0:7f:5f:55:6f:69:1f:
                    3e:28:72:79:a1:79:1f:d5:fe:62:ca:44:43:ce:0c:
                    e1:87
                Exponent: 65537 (0x10001)
        X509v3 extensions:
            X509v3 Basic Constraints: 
                CA:FALSE
            X509v3 Subject Key Identifier: 
                50:34:1A:F8:35:15:B7:AD:A7:23:24:6F:68:1F:2E:AD:AF:90:4B:B9
            X509v3 Authority Key Identifier: 
                CD:38:9D:DC:94:45:90:43:C4:D2:32:5C:34:43:EB:9D:66:39:6C:6C
            X509v3 Key Usage: 
                Digital Signature, Non Repudiation, Key Encipherment
            X509v3 Extended Key Usage: 
                TLS Web Server Authentication
            X509v3 Subject Alternative Name: 
                DNS:web-platform.test, DNS:www.web-platform.test, DNS:not-web-platform.test, DNS:www1.web-platform.test, DNS:www2.web-platform.test, DNS:www.www.web-platform.test, DNS:www.not-web-platform.test, DNS:www.www2.web-platform.test, DNS:www1.not-web-platform.test, DNS:www.www1.web-platform.test, DNS:www1.www.web-platform.test, DNS:www2.www.web-platform.test, DNS:www2.not-web-platform.test, DNS:www2.www1.web-platform.test, DNS:www1.www2.web-platform.test, DNS:www2.www2.web-platform.test, DNS:www1.www1.web-platform.test, DNS:www.www.not-web-platform.test, DNS:www2.www.not-web-platform.test, DNS:www1.www.not-web-platform.test, DNS:xn--lve-6lad.web-platform.test, DNS:www.www1.not-web-platform.test, DNS:www.www2.not-web-platform.test, DNS:www1.www1.not-web-platform.test, DNS:www2.www1.not-web-platform.test, DNS:www2.www2.not-web-platform.test, DNS:www1.www2.not-web-platform.test, DNS:xn--lve-6lad.www.web-platform.test, DNS:www.xn--lve-6lad.web-platform.test, DNS:xn--lve-6lad.not-web-platform.test, DNS:www1.xn--lve-6lad.web-platform.test, DNS:xn--lve-6lad.www1.web-platform.test, DNS:www2.xn--lve-6lad.web-platform.test, DNS:xn--lve-6lad.www2.web-platform.test, DNS:www.xn--lve-6lad.not-web-platform.test, DNS:xn--lve-6lad.www.not-web-platform.test, DNS:www1.xn--lve-6lad.not-web-platform.test, DNS:xn--lve-6lad.www1.not-web-platform.test, DNS:www2.xn--lve-6lad.not-web-platform.test, DNS:xn--lve-6lad.www2.not-web-platform.test, DNS:xn--n8j6ds53lwwkrqhv28a.web-platform.test, DNS:xn--lve-6lad.xn--lve-6lad.web-platform.test, DNS:xn--n8j6ds53lwwkrqhv28a.www.web-platform.test, DNS:xn--n8j6ds53lwwkrqhv28a.not-web-platform.test, DNS:www.xn--n8j6ds53lwwkrqhv28a.web-platform.test, DNS:xn--n8j6ds53lwwkrqhv28a.www1.web-platform.test, DNS:www1.xn--n8j6ds53lwwkrqhv28a.web-platform.test, DNS:xn--n8j6ds53lwwkrqhv28a.www2.web-platform.test, DNS:www2.xn--n8j6ds53lwwkrqhv28a.web-platform.test, DNS:xn--lve-6lad.xn--lve-6lad.not-web-platform.test, DNS:www.xn--n8j6ds53lwwkrqhv28a.not-web-platform.test, DNS:xn--n8j6ds53lwwkrqhv28a.www.not-web-platform.test, DNS:www2.xn--n8j6ds53lwwkrqhv28a.not-web-platform.test, DNS:xn--n8j6ds53lwwkrqhv28a.www2.not-web-platform.test, DNS:xn--n8j6ds53lwwkrqhv28a.www1.not-web-platform.test, DNS:www1.xn--n8j6ds53lwwkrqhv28a.not-web-platform.test, DNS:xn--lve-6lad.xn--n8j6ds53lwwkrqhv28a.web-platform.test, DNS:xn--n8j6ds53lwwkrqhv28a.xn--lve-6lad.web-platform.test, DNS:xn--lve-6lad.xn--n8j6ds53lwwkrqhv28a.not-web-platform.test, DNS:xn--n8j6ds53lwwkrqhv28a.xn--lve-6lad.not-web-platform.test, DNS:xn--n8j6ds53lwwkrqhv28a.xn--n8j6ds53lwwkrqhv28a.web-platform.test, DNS:xn--n8j6ds53lwwkrqhv28a.xn--n8j6ds53lwwkrqhv28a.not-web-platform.test
    Signature Algorithm: sha256WithRSAEncryption
    Signature Value:
        33:77:68:04:98:7d:78:f7:5d:8e:fd:0b:2d:ee:e4:b9:46:06:
        99:1b:ea:dc:28:2d:e0:e5:1b:57:c4:2b:3a:82:e1:82:9a:1b:
        ce:43:42:83:83:8a:67:16:ca:c0:5e:02:5b:f5:cd:96:8f:8e:
        07:53:6f:d2:36:71:4b:00:48:a7:85:64:85:9d:fb:89:d7:b9:
        1d:35:65:01:2f:ae:b9:39:79:94:57:c0:ef:d8:4a:3b:95:2b:
        fa:70:f4:91:66:5c:a5:4c:45:3a:c9:cc:4c:d7:c3:db:5e:74:
        0e:87:ec:ea:a8:13:ce:7e:2f:75:3b:b5:e0:30:25:16:e7:b4:
        19:aa:3b:eb:4d:d3:46:84:63:51:9a:41:af:02:09:d8:7f:3a:
        77:c2:a1:19:b0:75:65:39:0e:c4:44:8b:88:43:0d:cb:93:e8:
        57:75:50:85:9b:7d:9a:f0:02:07:73:8b:d9:96:cd:e3:3f:0b:
        94:26:40:c0:fa:e1:b5:80:ce:bc:92:f3:25:a5:a8:5d:17:88:
        18:8e:a2:b3:a5:e6:a7:22:35:e5:6d:71:9a:ca:e3:41:22:2a:
        ff:a0:27:8e:5b:1a:5a:98:22:f0:64:73:ae:f6:00:e4:a6:fd:
        86:e0:81:ea:03:97:92:82:2f:76:e5:bd:60:cd:e7:c7:ef:60:
        3f:de:b6:2a
-----BEGIN CERTIFICATE-----
MIIMsjCCC5qgAwIBAgIDB0zxMA0GCSqGSIb3DQEBCwUAMB0xGzAZBgNVBAMMEndl
Yi1wbGF0Zm9ybS10ZXN0czAeFw0yNjAxMTIwMTI3NDZaFw0yNzAxMTIwMTI3NDZa
MBwxGjAYBgNVBAMMEXdlYi1wbGF0Zm9ybS50ZXN0MIIBIjANBgkqhkiG9w0BAQEF
AAOCAQ8AMIIBCgKCAQEAkkXXOQlLA130Z8Oh2HJ2FekpKAWVxZ/ndBKLWyvc2OEV
mCHkMLMj08L7rGD2E3yaZJRyFa1Zl/PRE2u2K3GCk4VoO+bz1fO9wJI49FIhJPtx
wNxnYv48K+l6GwJkqUiqRe4d/37GbSaGZfCSMcks+bh0YORPyywG5+arpcCw3MQQ
tcDeoY3TMq/vzTWCkgXuqn5RUyIsEN+ebwBxeYNQFSKcnVVnUqhx8y5/VVkQTjSf
OnzGiwQODYzHHTz1XWOUFYLYsv9Xtz2NMC766s1A1LIpAr+hOC52B4DH0EjmYjEB
VzGXob+SGrB/X1VvaR8+KHJ5oXkf1f5iykRDzgzhhwIDAQABo4IJ+jCCCfYwCQYD
VR0TBAIwADAdBgNVHQ4EFgQUUDQa+DUVt62nIyRvaB8ura+QS7kwHwYDVR0jBBgw
FoAUzTid3JRFkEPE0jJcNEPrnWY5bGwwCwYDVR0PBAQDAgXgMBMGA1UdJQQMMAoG
CCsGAQUFBwMBMIIJhQYDVR0RBIIJfDCCCXiCEXdlYi1wbGF0Zm9ybS50ZXN0ghV3
d3cud2ViLXBsYXRmb3JtLnRlc3SCFW5vdC13ZWItcGxhdGZvcm0udGVzdIIWd3d3
MS53ZWItcGxhdGZvcm0udGVzdIIWd3d3Mi53ZWItcGxhdGZvcm0udGVzdIIZd3d3
Lnd3dy53ZWItcGxhdGZvcm0udGVzdIIZd3d3Lm5vdC13ZWItcGxhdGZvcm0udGVz
dIIad3d3Lnd3dzIud2ViLXBsYXRmb3JtLnRlc3SCGnd3dzEubm90LXdlYi1wbGF0
Zm9ybS50ZXN0ghp3d3cud3d3MS53ZWItcGxhdGZvcm0udGVzdIIad3d3MS53d3cu
d2ViLXBsYXRmb3JtLnRlc3SCGnd3dzIud3d3LndlYi1wbGF0Zm9ybS50ZXN0ghp3
d3cyLm5vdC13ZWItcGxhdGZvcm0udGVzdIIbd3d3Mi53d3cxLndlYi1wbGF0Zm9y
bS50ZXN0ght3d3cxLnd3dzIud2ViLXBsYXRmb3JtLnRlc3SCG3d3dzIud3d3Mi53
ZWItcGxhdGZvcm0udGVzdIIbd3d3MS53d3cxLndlYi1wbGF0Zm9ybS50ZXN0gh13
d3cud3d3Lm5vdC13ZWItcGxhdGZvcm0udGVzdIIed3d3Mi53d3cubm90LXdlYi1w
bGF0Zm9ybS50ZXN0gh53d3cxLnd3dy5ub3Qtd2ViLXBsYXRmb3JtLnRlc3SCHnhu
LS1sdmUtNmxhZC53ZWItcGxhdGZvcm0udGVzdIIed3d3Lnd3dzEubm90LXdlYi1w
bGF0Zm9ybS50ZXN0gh53d3cud3d3Mi5ub3Qtd2ViLXBsYXRmb3JtLnRlc3SCH3d3
dzEud3d3MS5ub3Qtd2ViLXBsYXRmb3JtLnRlc3SCH3d3dzIud3d3MS5ub3Qtd2Vi
LXBsYXRmb3JtLnRlc3SCH3d3dzIud3d3Mi5ub3Qtd2ViLXBsYXRmb3JtLnRlc3SC
H3d3dzEud3d3Mi5ub3Qtd2ViLXBsYXRmb3JtLnRlc3SCInhuLS1sdmUtNmxhZC53
d3cud2ViLXBsYXRmb3JtLnRlc3SCInd3dy54bi0tbHZlLTZsYWQud2ViLXBsYXRm
b3JtLnRlc3SCInhuLS1sdmUtNmxhZC5ub3Qtd2ViLXBsYXRmb3JtLnRlc3SCI3d3
dzEueG4tLWx2ZS02bGFkLndlYi1wbGF0Zm9ybS50ZXN0giN4bi0tbHZlLTZsYWQu
d3d3MS53ZWItcGxhdGZvcm0udGVzdIIjd3d3Mi54bi0tbHZlLTZsYWQud2ViLXBs
YXRmb3JtLnRlc3SCI3huLS1sdmUtNmxhZC53d3cyLndlYi1wbGF0Zm9ybS50ZXN0
giZ3d3cueG4tLWx2ZS02bGFkLm5vdC13ZWItcGxhdGZvcm0udGVzdIImeG4tLWx2
ZS02bGFkLnd3dy5ub3Qtd2ViLXBsYXRmb3JtLnRlc3SCJ3d3dzEueG4tLWx2ZS02
bGFkLm5vdC13ZWItcGxhdGZvcm0udGVzdIIneG4tLWx2ZS02bGFkLnd3dzEubm90
LXdlYi1wbGF0Zm9ybS50ZXN0gid3d3cyLnhuLS1sdmUtNmxhZC5ub3Qtd2ViLXBs
YXRmb3JtLnRlc3SCJ3huLS1sdmUtNmxhZC53d3cyLm5vdC13ZWItcGxhdGZvcm0u
dGVzdIIpeG4tLW44ajZkczUzbHd3a3JxaHYyOGEud2ViLXBsYXRmb3JtLnRlc3SC
K3huLS1sdmUtNmxhZC54bi0tbHZlLTZsYWQud2ViLXBsYXRmb3JtLnRlc3SCLXhu
LS1uOGo2ZHM1M2x3d2tycWh2MjhhLnd3dy53ZWItcGxhdGZvcm0udGVzdIIteG4t
LW44ajZkczUzbHd3a3JxaHYyOGEubm90LXdlYi1wbGF0Zm9ybS50ZXN0gi13d3cu
eG4tLW44ajZkczUzbHd3a3JxaHYyOGEud2ViLXBsYXRmb3JtLnRlc3SCLnhuLS1u
OGo2ZHM1M2x3d2tycWh2MjhhLnd3dzEud2ViLXBsYXRmb3JtLnRlc3SCLnd3dzEu
eG4tLW44ajZkczUzbHd3a3JxaHYyOGEud2ViLXBsYXRmb3JtLnRlc3SCLnhuLS1u
OGo2ZHM1M2x3d2tycWh2MjhhLnd3dzIud2ViLXBsYXRmb3JtLnRlc3SCLnd3dzIu
eG4tLW44ajZkczUzbHd3a3JxaHYyOGEud2ViLXBsYXRmb3JtLnRlc3SCL3huLS1s
dmUtNmxhZC54bi0tbHZlLTZsYWQubm90LXdlYi1wbGF0Zm9ybS50ZXN0gjF3d3cu
eG4tLW44ajZkczUzbHd3a3JxaHYyOGEubm90LXdlYi1wbGF0Zm9ybS50ZXN0gjF4
bi0tbjhqNmRzNTNsd3drcnFodjI4YS53d3cubm90LXdlYi1wbGF0Zm9ybS50ZXN0
gjJ3d3cyLnhuLS1uOGo2ZHM1M2x3d2tycWh2MjhhLm5vdC13ZWItcGxhdGZvcm0u
dGVzdIIyeG4tLW44ajZkczUzbHd3a3JxaHYyOGEud3d3Mi5ub3Qtd2ViLXBsYXRm
b3JtLnRlc3SCMnhuLS1uOGo2ZHM1M2x3d2tycWh2MjhhLnd3dzEubm90LXdlYi1w
bGF0Zm9ybS50ZXN0gjJ3d3cxLnhuLS1uOGo2ZHM1M2x3d2tycWh2MjhhLm5vdC13
ZWItcGxhdGZvcm0udGVzdII2eG4tLWx2ZS02bGFkLnhuLS1uOGo2ZHM1M2x3d2ty
cWh2MjhhLndlYi1wbGF0Zm9ybS50ZXN0gjZ4bi0tbjhqNmRzNTNsd3drcnFodjI4
YS54bi0tbHZlLTZsYWQud2ViLXBsYXRmb3JtLnRlc3SCOnhuLS1sdmUtNmxhZC54
bi0tbjhqNmRzNTNsd3drcnFodjI4YS5ub3Qtd2ViLXBsYXRmb3JtLnRlc3SCOnhu
LS1uOGo2ZHM1M2x3d2tycWh2MjhhLnhuLS1sdmUtNmxhZC5ub3Qtd2ViLXBsYXRm
b3JtLnRlc3SCQXhuLS1uOGo2ZHM1M2x3d2tycWh2MjhhLnhuLS1uOGo2ZHM1M2x3
d2tycWh2MjhhLndlYi1wbGF0Zm9ybS50ZXN0gkV4bi0tbjhqNmRzNTNsd3drcnFo
djI4YS54bi0tbjhqNmRzNTNsd3drcnFodjI4YS5ub3Qtd2ViLXBsYXRmb3JtLnRl
c3QwDQYJKoZIhvcNAQELBQADggEBADN3aASYfXj3XY79Cy3u5LlGBpkb6twoLeDl
G1fEKzqC4YKaG85DQoODimcWysBeAlv1zZaPjgdTb9I2cUsASKeFZIWd+4nXuR01
ZQEvrrk5eZRXwO/YSjuVK/pw9JFmXKVMRTrJzEzXw9tedA6H7OqoE85+L3U7teAw
JRbntBmqO+tN00aEY1GaQa8CCdh/OnfCoRmwdWU5DsREi4hDDcuT6Fd1UIWbfZrw
Agdzi9mWzeM/C5QmQMD64bWAzryS8yWlqF0XiBiOorOl5qciNeVtcZrK40EiKv+g
J45bGlqYIvBkc672AOSm/YbggeoDl5KCL3blvWDN58fvYD/etio=
-----END CERTIFICATE-----
