Certificate:
    Data:
        Version: 3 (0x2)
        Serial Number: 638083 (0x9bc83)
        Signature Algorithm: sha256WithRSAEncryption
        Issuer: CN=web-platform-tests
        Validity
            Not Before: Jul  8 05:15:25 2022 GMT
            Not After : Jul  8 05:15:25 2023 GMT
        Subject: CN=web-platform.test
        Subject Public Key Info:
            Public Key Algorithm: rsaEncryption
                RSA Public-Key: (2048 bit)
                Modulus:
                    00:9f:72:91:7e:6d:8e:ca:ca:38:12:0a:7c:f8:ec:
                    4b:ba:f0:e9:db:60:88:c5:dc:96:5e:fb:ed:5a:da:
                    82:95:35:d4:9a:bd:c2:14:a6:46:3d:69:2a:93:55:
                    ee:e9:ee:91:2a:a6:c2:6e:c1:7c:cb:dc:18:26:ef:
                    02:36:cb:e7:20:9e:44:f8:e9:a8:2a:8e:cd:e7:8d:
                    59:65:04:51:71:d8:9d:8d:2a:44:fc:a7:d1:3e:b6:
                    e9:c6:72:0c:da:43:31:2f:ce:e1:33:df:69:b2:b3:
                    56:75:56:63:e2:b0:17:3f:bc:a7:0e:ef:50:88:6b:
                    26:a7:92:60:e8:ef:9a:96:bd:1d:1a:e2:85:d1:c3:
                    79:01:74:54:fe:1c:0f:2d:5d:d1:25:82:13:80:7f:
                    c3:d6:ee:99:eb:39:4b:e7:fd:31:6a:97:2c:06:41:
                    11:ee:ad:7f:e1:0f:a0:f4:7a:80:88:65:63:ed:56:
                    53:43:b9:dc:e0:fc:84:88:d0:ad:42:aa:22:37:d1:
                    a2:21:b7:e3:32:a0:1f:6b:34:50:72:60:ed:a2:39:
                    5c:10:da:00:7c:99:77:3b:85:c7:fd:49:40:52:93:
                    07:63:6c:f4:81:a4:bf:eb:6c:f5:9c:ea:ac:0e:a2:
                    49:39:e6:c8:ce:d3:ae:6e:ae:eb:a4:d0:0b:fc:e0:
                    2a:49
                Exponent: 65537 (0x10001)
        X509v3 extensions:
            X509v3 Basic Constraints: 
                CA:FALSE
            X509v3 Subject Key Identifier: 
                26:01:9C:41:9B:22:C3:0D:38:32:31:2B:09:AD:BE:59:51:8D:31:0E
            X509v3 Authority Key Identifier: 
                keyid:36:2C:D9:5C:1B:45:63:30:87:4F:96:7A:B7:30:D5:72:EA:8A:91:D8

            X509v3 Key Usage: 
                Digital Signature, Non Repudiation, Key Encipherment
            X509v3 Extended Key Usage: 
                TLS Web Server Authentication
            X509v3 Subject Alternative Name: 
                DNS:web-platform.test, DNS:www.web-platform.test, DNS:not-web-platform.test, DNS:www1.web-platform.test, DNS:www2.web-platform.test, DNS:www.not-web-platform.test, DNS:www.www.web-platform.test, DNS:www2.not-web-platform.test, DNS:www2.www.web-platform.test, DNS:www1.not-web-platform.test, DNS:www.www1.web-platform.test, DNS:www.www2.web-platform.test, DNS:www1.www.web-platform.test, DNS:www1.www2.web-platform.test, DNS:www2.www1.web-platform.test, DNS:www1.www1.web-platform.test, DNS:www2.www2.web-platform.test, DNS:www.www.not-web-platform.test, DNS:www1.www.not-web-platform.test, DNS:www.www2.not-web-platform.test, DNS:www.www1.not-web-platform.test, DNS:xn--lve-6lad.web-platform.test, DNS:www2.www.not-web-platform.test, DNS:www1.www2.not-web-platform.test, DNS:www2.www1.not-web-platform.test, DNS:www2.www2.not-web-platform.test, DNS:www1.www1.not-web-platform.test, DNS:xn--lve-6lad.not-web-platform.test, DNS:xn--lve-6lad.www.web-platform.test, DNS:www.xn--lve-6lad.web-platform.test, DNS:xn--lve-6lad.www1.web-platform.test, DNS:www1.xn--lve-6lad.web-platform.test, DNS:www2.xn--lve-6lad.web-platform.test, DNS:xn--lve-6lad.www2.web-platform.test, DNS:xn--lve-6lad.www.not-web-platform.test, DNS:www.xn--lve-6lad.not-web-platform.test, DNS:www2.xn--lve-6lad.not-web-platform.test, DNS:xn--lve-6lad.www2.not-web-platform.test, DNS:xn--lve-6lad.www1.not-web-platform.test, DNS:www1.xn--lve-6lad.not-web-platform.test, DNS:xn--n8j6ds53lwwkrqhv28a.web-platform.test, DNS:xn--lve-6lad.xn--lve-6lad.web-platform.test, DNS:www.xn--n8j6ds53lwwkrqhv28a.web-platform.test, DNS:xn--n8j6ds53lwwkrqhv28a.not-web-platform.test, DNS:xn--n8j6ds53lwwkrqhv28a.www.web-platform.test, DNS:xn--n8j6ds53lwwkrqhv28a.www1.web-platform.test, DNS:www2.xn--n8j6ds53lwwkrqhv28a.web-platform.test, DNS:xn--n8j6ds53lwwkrqhv28a.www2.web-platform.test, DNS:www1.xn--n8j6ds53lwwkrqhv28a.web-platform.test, DNS:xn--lve-6lad.xn--lve-6lad.not-web-platform.test, DNS:xn--n8j6ds53lwwkrqhv28a.www.not-web-platform.test, DNS:www.xn--n8j6ds53lwwkrqhv28a.not-web-platform.test, DNS:www1.xn--n8j6ds53lwwkrqhv28a.not-web-platform.test, DNS:www2.xn--n8j6ds53lwwkrqhv28a.not-web-platform.test, DNS:xn--n8j6ds53lwwkrqhv28a.www2.not-web-platform.test, DNS:xn--n8j6ds53lwwkrqhv28a.www1.not-web-platform.test, DNS:xn--n8j6ds53lwwkrqhv28a.xn--lve-6lad.web-platform.test, DNS:xn--lve-6lad.xn--n8j6ds53lwwkrqhv28a.web-platform.test, DNS:xn--n8j6ds53lwwkrqhv28a.xn--lve-6lad.not-web-platform.test, DNS:xn--lve-6lad.xn--n8j6ds53lwwkrqhv28a.not-web-platform.test, DNS:xn--n8j6ds53lwwkrqhv28a.xn--n8j6ds53lwwkrqhv28a.web-platform.test, DNS:xn--n8j6ds53lwwkrqhv28a.xn--n8j6ds53lwwkrqhv28a.not-web-platform.test
    Signature Algorithm: sha256WithRSAEncryption
         34:b9:8a:9b:ca:ed:22:69:28:8e:c2:3d:c9:37:70:48:06:ef:
         eb:35:f4:f1:12:b1:f4:25:9d:9b:7b:bf:7c:76:f3:e2:03:83:
         9b:7f:65:0e:4a:09:b6:ed:f2:bd:89:57:ec:f6:08:32:3d:67:
         16:27:b3:5a:e3:5f:59:aa:21:a3:ce:32:59:65:f3:b1:db:cb:
         0c:66:68:10:cf:5f:d5:fa:28:f3:95:cd:dd:7b:22:83:aa:17:
         38:05:7c:4b:4f:a3:99:26:c7:e4:ea:22:4a:20:39:bf:30:0e:
         ee:d2:25:2b:fc:ae:a9:49:fb:4f:08:86:6b:30:27:5e:0f:d4:
         cb:54:7f:95:d5:50:11:db:ec:c8:99:cb:88:e8:ba:82:85:7e:
         78:98:76:61:38:c2:c0:4a:0f:57:d4:c3:39:04:d8:f6:c0:3a:
         51:07:c1:85:74:88:26:b3:8e:e5:db:f6:71:de:d7:36:24:06:
         39:36:b9:31:3b:33:a9:14:f8:e6:a2:b4:90:f9:3a:ee:b5:46:
         cc:f1:29:cd:42:a1:65:a6:27:53:92:8e:5b:4e:bc:f7:af:53:
         44:67:db:bd:96:70:5f:fe:4e:c3:c4:74:ad:ff:7d:91:a9:59:
         8f:9c:27:a9:4f:85:be:1f:21:9f:4c:18:b7:53:e1:4f:ce:f2:
         65:bc:2a:11
-----BEGIN CERTIFICATE-----
MIIMsjCCC5qgAwIBAgIDCbyDMA0GCSqGSIb3DQEBCwUAMB0xGzAZBgNVBAMMEndl
Yi1wbGF0Zm9ybS10ZXN0czAeFw0yMjA3MDgwNTE1MjVaFw0yMzA3MDgwNTE1MjVa
MBwxGjAYBgNVBAMMEXdlYi1wbGF0Zm9ybS50ZXN0MIIBIjANBgkqhkiG9w0BAQEF
AAOCAQ8AMIIBCgKCAQEAn3KRfm2Oyso4Egp8+OxLuvDp22CIxdyWXvvtWtqClTXU
mr3CFKZGPWkqk1Xu6e6RKqbCbsF8y9wYJu8CNsvnIJ5E+OmoKo7N541ZZQRRcdid
jSpE/KfRPrbpxnIM2kMxL87hM99psrNWdVZj4rAXP7ynDu9QiGsmp5Jg6O+alr0d
GuKF0cN5AXRU/hwPLV3RJYITgH/D1u6Z6zlL5/0xapcsBkER7q1/4Q+g9HqAiGVj
7VZTQ7nc4PyEiNCtQqoiN9GiIbfjMqAfazRQcmDtojlcENoAfJl3O4XH/UlAUpMH
Y2z0gaS/62z1nOqsDqJJOebIztOubq7rpNAL/OAqSQIDAQABo4IJ+jCCCfYwCQYD
VR0TBAIwADAdBgNVHQ4EFgQUJgGcQZsiww04MjErCa2+WVGNMQ4wHwYDVR0jBBgw
FoAUNizZXBtFYzCHT5Z6tzDVcuqKkdgwCwYDVR0PBAQDAgXgMBMGA1UdJQQMMAoG
CCsGAQUFBwMBMIIJhQYDVR0RBIIJfDCCCXiCEXdlYi1wbGF0Zm9ybS50ZXN0ghV3
d3cud2ViLXBsYXRmb3JtLnRlc3SCFW5vdC13ZWItcGxhdGZvcm0udGVzdIIWd3d3
MS53ZWItcGxhdGZvcm0udGVzdIIWd3d3Mi53ZWItcGxhdGZvcm0udGVzdIIZd3d3
Lm5vdC13ZWItcGxhdGZvcm0udGVzdIIZd3d3Lnd3dy53ZWItcGxhdGZvcm0udGVz
dIIad3d3Mi5ub3Qtd2ViLXBsYXRmb3JtLnRlc3SCGnd3dzIud3d3LndlYi1wbGF0
Zm9ybS50ZXN0ghp3d3cxLm5vdC13ZWItcGxhdGZvcm0udGVzdIIad3d3Lnd3dzEu
d2ViLXBsYXRmb3JtLnRlc3SCGnd3dy53d3cyLndlYi1wbGF0Zm9ybS50ZXN0ghp3
d3cxLnd3dy53ZWItcGxhdGZvcm0udGVzdIIbd3d3MS53d3cyLndlYi1wbGF0Zm9y
bS50ZXN0ght3d3cyLnd3dzEud2ViLXBsYXRmb3JtLnRlc3SCG3d3dzEud3d3MS53
ZWItcGxhdGZvcm0udGVzdIIbd3d3Mi53d3cyLndlYi1wbGF0Zm9ybS50ZXN0gh13
d3cud3d3Lm5vdC13ZWItcGxhdGZvcm0udGVzdIIed3d3MS53d3cubm90LXdlYi1w
bGF0Zm9ybS50ZXN0gh53d3cud3d3Mi5ub3Qtd2ViLXBsYXRmb3JtLnRlc3SCHnd3
dy53d3cxLm5vdC13ZWItcGxhdGZvcm0udGVzdIIeeG4tLWx2ZS02bGFkLndlYi1w
bGF0Zm9ybS50ZXN0gh53d3cyLnd3dy5ub3Qtd2ViLXBsYXRmb3JtLnRlc3SCH3d3
dzEud3d3Mi5ub3Qtd2ViLXBsYXRmb3JtLnRlc3SCH3d3dzIud3d3MS5ub3Qtd2Vi
LXBsYXRmb3JtLnRlc3SCH3d3dzIud3d3Mi5ub3Qtd2ViLXBsYXRmb3JtLnRlc3SC
H3d3dzEud3d3MS5ub3Qtd2ViLXBsYXRmb3JtLnRlc3SCInhuLS1sdmUtNmxhZC5u
b3Qtd2ViLXBsYXRmb3JtLnRlc3SCInhuLS1sdmUtNmxhZC53d3cud2ViLXBsYXRm
b3JtLnRlc3SCInd3dy54bi0tbHZlLTZsYWQud2ViLXBsYXRmb3JtLnRlc3SCI3hu
LS1sdmUtNmxhZC53d3cxLndlYi1wbGF0Zm9ybS50ZXN0giN3d3cxLnhuLS1sdmUt
NmxhZC53ZWItcGxhdGZvcm0udGVzdIIjd3d3Mi54bi0tbHZlLTZsYWQud2ViLXBs
YXRmb3JtLnRlc3SCI3huLS1sdmUtNmxhZC53d3cyLndlYi1wbGF0Zm9ybS50ZXN0
giZ4bi0tbHZlLTZsYWQud3d3Lm5vdC13ZWItcGxhdGZvcm0udGVzdIImd3d3Lnhu
LS1sdmUtNmxhZC5ub3Qtd2ViLXBsYXRmb3JtLnRlc3SCJ3d3dzIueG4tLWx2ZS02
bGFkLm5vdC13ZWItcGxhdGZvcm0udGVzdIIneG4tLWx2ZS02bGFkLnd3dzIubm90
LXdlYi1wbGF0Zm9ybS50ZXN0gid4bi0tbHZlLTZsYWQud3d3MS5ub3Qtd2ViLXBs
YXRmb3JtLnRlc3SCJ3d3dzEueG4tLWx2ZS02bGFkLm5vdC13ZWItcGxhdGZvcm0u
dGVzdIIpeG4tLW44ajZkczUzbHd3a3JxaHYyOGEud2ViLXBsYXRmb3JtLnRlc3SC
K3huLS1sdmUtNmxhZC54bi0tbHZlLTZsYWQud2ViLXBsYXRmb3JtLnRlc3SCLXd3
dy54bi0tbjhqNmRzNTNsd3drcnFodjI4YS53ZWItcGxhdGZvcm0udGVzdIIteG4t
LW44ajZkczUzbHd3a3JxaHYyOGEubm90LXdlYi1wbGF0Zm9ybS50ZXN0gi14bi0t
bjhqNmRzNTNsd3drcnFodjI4YS53d3cud2ViLXBsYXRmb3JtLnRlc3SCLnhuLS1u
OGo2ZHM1M2x3d2tycWh2MjhhLnd3dzEud2ViLXBsYXRmb3JtLnRlc3SCLnd3dzIu
eG4tLW44ajZkczUzbHd3a3JxaHYyOGEud2ViLXBsYXRmb3JtLnRlc3SCLnhuLS1u
OGo2ZHM1M2x3d2tycWh2MjhhLnd3dzIud2ViLXBsYXRmb3JtLnRlc3SCLnd3dzEu
eG4tLW44ajZkczUzbHd3a3JxaHYyOGEud2ViLXBsYXRmb3JtLnRlc3SCL3huLS1s
dmUtNmxhZC54bi0tbHZlLTZsYWQubm90LXdlYi1wbGF0Zm9ybS50ZXN0gjF4bi0t
bjhqNmRzNTNsd3drcnFodjI4YS53d3cubm90LXdlYi1wbGF0Zm9ybS50ZXN0gjF3
d3cueG4tLW44ajZkczUzbHd3a3JxaHYyOGEubm90LXdlYi1wbGF0Zm9ybS50ZXN0
gjJ3d3cxLnhuLS1uOGo2ZHM1M2x3d2tycWh2MjhhLm5vdC13ZWItcGxhdGZvcm0u
dGVzdIIyd3d3Mi54bi0tbjhqNmRzNTNsd3drcnFodjI4YS5ub3Qtd2ViLXBsYXRm
b3JtLnRlc3SCMnhuLS1uOGo2ZHM1M2x3d2tycWh2MjhhLnd3dzIubm90LXdlYi1w
bGF0Zm9ybS50ZXN0gjJ4bi0tbjhqNmRzNTNsd3drcnFodjI4YS53d3cxLm5vdC13
ZWItcGxhdGZvcm0udGVzdII2eG4tLW44ajZkczUzbHd3a3JxaHYyOGEueG4tLWx2
ZS02bGFkLndlYi1wbGF0Zm9ybS50ZXN0gjZ4bi0tbHZlLTZsYWQueG4tLW44ajZk
czUzbHd3a3JxaHYyOGEud2ViLXBsYXRmb3JtLnRlc3SCOnhuLS1uOGo2ZHM1M2x3
d2tycWh2MjhhLnhuLS1sdmUtNmxhZC5ub3Qtd2ViLXBsYXRmb3JtLnRlc3SCOnhu
LS1sdmUtNmxhZC54bi0tbjhqNmRzNTNsd3drcnFodjI4YS5ub3Qtd2ViLXBsYXRm
b3JtLnRlc3SCQXhuLS1uOGo2ZHM1M2x3d2tycWh2MjhhLnhuLS1uOGo2ZHM1M2x3
d2tycWh2MjhhLndlYi1wbGF0Zm9ybS50ZXN0gkV4bi0tbjhqNmRzNTNsd3drcnFo
djI4YS54bi0tbjhqNmRzNTNsd3drcnFodjI4YS5ub3Qtd2ViLXBsYXRmb3JtLnRl
c3QwDQYJKoZIhvcNAQELBQADggEBADS5ipvK7SJpKI7CPck3cEgG7+s19PESsfQl
nZt7v3x28+IDg5t/ZQ5KCbbt8r2JV+z2CDI9ZxYns1rjX1mqIaPOMlll87Hbywxm
aBDPX9X6KPOVzd17IoOqFzgFfEtPo5kmx+TqIkogOb8wDu7SJSv8rqlJ+08Ihmsw
J14P1MtUf5XVUBHb7MiZy4jouoKFfniYdmE4wsBKD1fUwzkE2PbAOlEHwYV0iCaz
juXb9nHe1zYkBjk2uTE7M6kU+OaitJD5Ou61RszxKc1CoWWmJ1OSjltOvPevU0Rn
272WcF/+TsPEdK3/fZGpWY+cJ6lPhb4fIZ9MGLdT4U/O8mW8KhE=
-----END CERTIFICATE-----
