Certificate:
    Data:
        Version: 3 (0x2)
        Serial Number: 884418 (0xd7ec2)
        Signature Algorithm: sha256WithRSAEncryption
        Issuer: CN=web-platform-tests
        Validity
            Not Before: Jun 12 00:56:46 2024 GMT
            Not After : Jun 12 00:56:46 2025 GMT
        Subject: CN=web-platform.test
        Subject Public Key Info:
            Public Key Algorithm: rsaEncryption
                RSA Public-Key: (2048 bit)
                Modulus:
                    00:df:f3:a9:d2:ea:88:a9:00:7b:85:66:1b:80:b0:
                    e9:93:94:b2:50:6a:80:16:84:87:55:b4:fd:9b:e3:
                    25:f1:f6:91:02:4c:df:41:74:9d:01:fd:9b:81:7d:
                    42:0d:52:28:d7:ce:39:2d:95:37:92:7e:ca:da:e7:
                    58:fb:46:ef:ac:ad:98:0a:6c:39:8e:46:28:82:61:
                    17:fb:45:cc:f8:cf:8e:a4:b4:3b:38:d2:d7:51:10:
                    40:ac:65:89:b4:32:a4:0b:75:58:21:e5:9d:ef:08:
                    c9:7a:1c:50:6b:3c:cc:53:72:ba:94:a6:5c:fa:5b:
                    79:c7:7c:f1:fa:86:c6:a5:95:33:be:3c:03:66:e0:
                    a1:70:59:1f:aa:f3:4f:be:16:72:da:08:7e:19:c9:
                    76:ca:ac:23:06:5f:98:6a:49:b2:6c:5a:c9:72:71:
                    35:ca:97:fe:01:99:39:20:6c:0b:5c:c4:10:ea:0f:
                    c4:37:e5:e1:2f:68:96:39:74:c9:27:47:70:34:06:
                    4e:12:4a:3e:b2:f2:59:8f:ef:60:1b:bb:f0:5d:ff:
                    3d:dc:9a:55:4e:1f:f7:67:8c:6f:dc:ef:3e:90:6c:
                    83:82:aa:d9:d4:44:c9:aa:f2:35:62:56:bd:db:2f:
                    ed:0f:60:32:9d:54:25:a0:0d:45:3a:b9:4c:d2:c7:
                    25:23
                Exponent: 65537 (0x10001)
        X509v3 extensions:
            X509v3 Basic Constraints: 
                CA:FALSE
            X509v3 Subject Key Identifier: 
                74:3C:B1:DE:68:DF:99:B2:CB:23:89:F7:52:FE:52:5D:71:88:14:8D
            X509v3 Authority Key Identifier: 
                keyid:B3:FE:4A:61:48:32:22:0E:B0:23:F5:48:68:DA:38:42:BF:F7:D2:D9

            X509v3 Key Usage: 
                Digital Signature, Non Repudiation, Key Encipherment
            X509v3 Extended Key Usage: 
                TLS Web Server Authentication
            X509v3 Subject Alternative Name: 
                DNS:web-platform.test, DNS:not-web-platform.test, DNS:www.web-platform.test, DNS:www1.web-platform.test, DNS:www2.web-platform.test, DNS:www.not-web-platform.test, DNS:www.www.web-platform.test, DNS:www2.not-web-platform.test, DNS:www2.www.web-platform.test, DNS:www.www2.web-platform.test, DNS:www1.not-web-platform.test, DNS:www.www1.web-platform.test, DNS:www1.www.web-platform.test, DNS:www2.www1.web-platform.test, DNS:www1.www2.web-platform.test, DNS:www1.www1.web-platform.test, DNS:www2.www2.web-platform.test, DNS:www.www.not-web-platform.test, DNS:xn--lve-6lad.web-platform.test, DNS:www.www2.not-web-platform.test, DNS:www.www1.not-web-platform.test, DNS:www2.www.not-web-platform.test, DNS:www1.www.not-web-platform.test, DNS:www1.www1.not-web-platform.test, DNS:www2.www1.not-web-platform.test, DNS:www1.www2.not-web-platform.test, DNS:www2.www2.not-web-platform.test, DNS:xn--lve-6lad.www.web-platform.test, DNS:www.xn--lve-6lad.web-platform.test, DNS:xn--lve-6lad.not-web-platform.test, DNS:xn--lve-6lad.www1.web-platform.test, DNS:xn--lve-6lad.www2.web-platform.test, DNS:www1.xn--lve-6lad.web-platform.test, DNS:www2.xn--lve-6lad.web-platform.test, DNS:www.xn--lve-6lad.not-web-platform.test, DNS:xn--lve-6lad.www.not-web-platform.test, DNS:xn--lve-6lad.www1.not-web-platform.test, DNS:www1.xn--lve-6lad.not-web-platform.test, DNS:xn--lve-6lad.www2.not-web-platform.test, DNS:www2.xn--lve-6lad.not-web-platform.test, DNS:xn--n8j6ds53lwwkrqhv28a.web-platform.test, DNS:xn--lve-6lad.xn--lve-6lad.web-platform.test, DNS:xn--n8j6ds53lwwkrqhv28a.not-web-platform.test, DNS:www.xn--n8j6ds53lwwkrqhv28a.web-platform.test, DNS:xn--n8j6ds53lwwkrqhv28a.www.web-platform.test, DNS:www1.xn--n8j6ds53lwwkrqhv28a.web-platform.test, DNS:xn--n8j6ds53lwwkrqhv28a.www2.web-platform.test, DNS:www2.xn--n8j6ds53lwwkrqhv28a.web-platform.test, DNS:xn--n8j6ds53lwwkrqhv28a.www1.web-platform.test, DNS:xn--lve-6lad.xn--lve-6lad.not-web-platform.test, DNS:www.xn--n8j6ds53lwwkrqhv28a.not-web-platform.test, DNS:xn--n8j6ds53lwwkrqhv28a.www.not-web-platform.test, DNS:www1.xn--n8j6ds53lwwkrqhv28a.not-web-platform.test, DNS:xn--n8j6ds53lwwkrqhv28a.www2.not-web-platform.test, DNS:www2.xn--n8j6ds53lwwkrqhv28a.not-web-platform.test, DNS:xn--n8j6ds53lwwkrqhv28a.www1.not-web-platform.test, DNS:xn--n8j6ds53lwwkrqhv28a.xn--lve-6lad.web-platform.test, DNS:xn--lve-6lad.xn--n8j6ds53lwwkrqhv28a.web-platform.test, DNS:xn--lve-6lad.xn--n8j6ds53lwwkrqhv28a.not-web-platform.test, DNS:xn--n8j6ds53lwwkrqhv28a.xn--lve-6lad.not-web-platform.test, DNS:xn--n8j6ds53lwwkrqhv28a.xn--n8j6ds53lwwkrqhv28a.web-platform.test, DNS:xn--n8j6ds53lwwkrqhv28a.xn--n8j6ds53lwwkrqhv28a.not-web-platform.test
    Signature Algorithm: sha256WithRSAEncryption
         42:a1:3a:2d:06:6c:f3:43:9f:a6:e9:f0:2d:4b:0f:ad:43:f1:
         44:7f:33:f5:e6:7a:09:e3:75:6d:c2:91:23:5c:dd:bc:46:ed:
         31:83:40:ed:14:d1:12:37:7a:e3:c4:6a:d0:f1:6d:42:13:93:
         a6:63:f6:00:a4:36:1b:a8:ca:34:4a:39:ec:1b:48:40:22:3b:
         63:82:6c:7c:a9:0e:69:af:f6:7b:0d:ef:ff:cb:fd:db:c1:70:
         36:a9:1b:2a:d8:eb:f4:eb:76:49:0f:1a:3e:0b:22:2a:10:94:
         16:a0:33:98:f3:b7:89:50:c1:98:03:ae:6b:b5:50:c2:2c:61:
         e1:83:b7:7f:fc:7d:82:fd:93:0e:60:ef:18:9d:94:c5:27:b8:
         a0:47:dd:b2:ab:f0:2d:5c:05:35:b4:80:14:8c:c3:71:e3:d5:
         a0:a0:77:fb:eb:49:c4:f4:e9:ca:af:eb:b1:c2:57:df:a3:be:
         f9:4e:cb:9a:0a:64:a7:12:88:78:05:12:59:04:18:58:b3:08:
         97:5a:d0:9c:c7:4b:6e:5c:3d:33:fd:16:d1:76:b3:31:0e:0b:
         a8:d4:2e:9d:ea:c3:86:20:2a:7e:1a:ce:da:9f:a1:df:8f:c9:
         59:21:54:b6:d5:91:87:76:c0:03:b6:52:69:2b:2b:7d:21:7f:
         be:e1:d4:5c
-----BEGIN CERTIFICATE-----
MIIMsjCCC5qgAwIBAgIDDX7CMA0GCSqGSIb3DQEBCwUAMB0xGzAZBgNVBAMMEndl
Yi1wbGF0Zm9ybS10ZXN0czAeFw0yNDA2MTIwMDU2NDZaFw0yNTA2MTIwMDU2NDZa
MBwxGjAYBgNVBAMMEXdlYi1wbGF0Zm9ybS50ZXN0MIIBIjANBgkqhkiG9w0BAQEF
AAOCAQ8AMIIBCgKCAQEA3/Op0uqIqQB7hWYbgLDpk5SyUGqAFoSHVbT9m+Ml8faR
AkzfQXSdAf2bgX1CDVIo1845LZU3kn7K2udY+0bvrK2YCmw5jkYogmEX+0XM+M+O
pLQ7ONLXURBArGWJtDKkC3VYIeWd7wjJehxQazzMU3K6lKZc+lt5x3zx+obGpZUz
vjwDZuChcFkfqvNPvhZy2gh+Gcl2yqwjBl+YakmybFrJcnE1ypf+AZk5IGwLXMQQ
6g/EN+XhL2iWOXTJJ0dwNAZOEko+svJZj+9gG7vwXf893JpVTh/3Z4xv3O8+kGyD
gqrZ1ETJqvI1Yla92y/tD2AynVQloA1FOrlM0sclIwIDAQABo4IJ+jCCCfYwCQYD
VR0TBAIwADAdBgNVHQ4EFgQUdDyx3mjfmbLLI4n3Uv5SXXGIFI0wHwYDVR0jBBgw
FoAUs/5KYUgyIg6wI/VIaNo4Qr/30tkwCwYDVR0PBAQDAgXgMBMGA1UdJQQMMAoG
CCsGAQUFBwMBMIIJhQYDVR0RBIIJfDCCCXiCEXdlYi1wbGF0Zm9ybS50ZXN0ghVu
b3Qtd2ViLXBsYXRmb3JtLnRlc3SCFXd3dy53ZWItcGxhdGZvcm0udGVzdIIWd3d3
MS53ZWItcGxhdGZvcm0udGVzdIIWd3d3Mi53ZWItcGxhdGZvcm0udGVzdIIZd3d3
Lm5vdC13ZWItcGxhdGZvcm0udGVzdIIZd3d3Lnd3dy53ZWItcGxhdGZvcm0udGVz
dIIad3d3Mi5ub3Qtd2ViLXBsYXRmb3JtLnRlc3SCGnd3dzIud3d3LndlYi1wbGF0
Zm9ybS50ZXN0ghp3d3cud3d3Mi53ZWItcGxhdGZvcm0udGVzdIIad3d3MS5ub3Qt
d2ViLXBsYXRmb3JtLnRlc3SCGnd3dy53d3cxLndlYi1wbGF0Zm9ybS50ZXN0ghp3
d3cxLnd3dy53ZWItcGxhdGZvcm0udGVzdIIbd3d3Mi53d3cxLndlYi1wbGF0Zm9y
bS50ZXN0ght3d3cxLnd3dzIud2ViLXBsYXRmb3JtLnRlc3SCG3d3dzEud3d3MS53
ZWItcGxhdGZvcm0udGVzdIIbd3d3Mi53d3cyLndlYi1wbGF0Zm9ybS50ZXN0gh13
d3cud3d3Lm5vdC13ZWItcGxhdGZvcm0udGVzdIIeeG4tLWx2ZS02bGFkLndlYi1w
bGF0Zm9ybS50ZXN0gh53d3cud3d3Mi5ub3Qtd2ViLXBsYXRmb3JtLnRlc3SCHnd3
dy53d3cxLm5vdC13ZWItcGxhdGZvcm0udGVzdIIed3d3Mi53d3cubm90LXdlYi1w
bGF0Zm9ybS50ZXN0gh53d3cxLnd3dy5ub3Qtd2ViLXBsYXRmb3JtLnRlc3SCH3d3
dzEud3d3MS5ub3Qtd2ViLXBsYXRmb3JtLnRlc3SCH3d3dzIud3d3MS5ub3Qtd2Vi
LXBsYXRmb3JtLnRlc3SCH3d3dzEud3d3Mi5ub3Qtd2ViLXBsYXRmb3JtLnRlc3SC
H3d3dzIud3d3Mi5ub3Qtd2ViLXBsYXRmb3JtLnRlc3SCInhuLS1sdmUtNmxhZC53
d3cud2ViLXBsYXRmb3JtLnRlc3SCInd3dy54bi0tbHZlLTZsYWQud2ViLXBsYXRm
b3JtLnRlc3SCInhuLS1sdmUtNmxhZC5ub3Qtd2ViLXBsYXRmb3JtLnRlc3SCI3hu
LS1sdmUtNmxhZC53d3cxLndlYi1wbGF0Zm9ybS50ZXN0giN4bi0tbHZlLTZsYWQu
d3d3Mi53ZWItcGxhdGZvcm0udGVzdIIjd3d3MS54bi0tbHZlLTZsYWQud2ViLXBs
YXRmb3JtLnRlc3SCI3d3dzIueG4tLWx2ZS02bGFkLndlYi1wbGF0Zm9ybS50ZXN0
giZ3d3cueG4tLWx2ZS02bGFkLm5vdC13ZWItcGxhdGZvcm0udGVzdIImeG4tLWx2
ZS02bGFkLnd3dy5ub3Qtd2ViLXBsYXRmb3JtLnRlc3SCJ3huLS1sdmUtNmxhZC53
d3cxLm5vdC13ZWItcGxhdGZvcm0udGVzdIInd3d3MS54bi0tbHZlLTZsYWQubm90
LXdlYi1wbGF0Zm9ybS50ZXN0gid4bi0tbHZlLTZsYWQud3d3Mi5ub3Qtd2ViLXBs
YXRmb3JtLnRlc3SCJ3d3dzIueG4tLWx2ZS02bGFkLm5vdC13ZWItcGxhdGZvcm0u
dGVzdIIpeG4tLW44ajZkczUzbHd3a3JxaHYyOGEud2ViLXBsYXRmb3JtLnRlc3SC
K3huLS1sdmUtNmxhZC54bi0tbHZlLTZsYWQud2ViLXBsYXRmb3JtLnRlc3SCLXhu
LS1uOGo2ZHM1M2x3d2tycWh2MjhhLm5vdC13ZWItcGxhdGZvcm0udGVzdIItd3d3
LnhuLS1uOGo2ZHM1M2x3d2tycWh2MjhhLndlYi1wbGF0Zm9ybS50ZXN0gi14bi0t
bjhqNmRzNTNsd3drcnFodjI4YS53d3cud2ViLXBsYXRmb3JtLnRlc3SCLnd3dzEu
eG4tLW44ajZkczUzbHd3a3JxaHYyOGEud2ViLXBsYXRmb3JtLnRlc3SCLnhuLS1u
OGo2ZHM1M2x3d2tycWh2MjhhLnd3dzIud2ViLXBsYXRmb3JtLnRlc3SCLnd3dzIu
eG4tLW44ajZkczUzbHd3a3JxaHYyOGEud2ViLXBsYXRmb3JtLnRlc3SCLnhuLS1u
OGo2ZHM1M2x3d2tycWh2MjhhLnd3dzEud2ViLXBsYXRmb3JtLnRlc3SCL3huLS1s
dmUtNmxhZC54bi0tbHZlLTZsYWQubm90LXdlYi1wbGF0Zm9ybS50ZXN0gjF3d3cu
eG4tLW44ajZkczUzbHd3a3JxaHYyOGEubm90LXdlYi1wbGF0Zm9ybS50ZXN0gjF4
bi0tbjhqNmRzNTNsd3drcnFodjI4YS53d3cubm90LXdlYi1wbGF0Zm9ybS50ZXN0
gjJ3d3cxLnhuLS1uOGo2ZHM1M2x3d2tycWh2MjhhLm5vdC13ZWItcGxhdGZvcm0u
dGVzdIIyeG4tLW44ajZkczUzbHd3a3JxaHYyOGEud3d3Mi5ub3Qtd2ViLXBsYXRm
b3JtLnRlc3SCMnd3dzIueG4tLW44ajZkczUzbHd3a3JxaHYyOGEubm90LXdlYi1w
bGF0Zm9ybS50ZXN0gjJ4bi0tbjhqNmRzNTNsd3drcnFodjI4YS53d3cxLm5vdC13
ZWItcGxhdGZvcm0udGVzdII2eG4tLW44ajZkczUzbHd3a3JxaHYyOGEueG4tLWx2
ZS02bGFkLndlYi1wbGF0Zm9ybS50ZXN0gjZ4bi0tbHZlLTZsYWQueG4tLW44ajZk
czUzbHd3a3JxaHYyOGEud2ViLXBsYXRmb3JtLnRlc3SCOnhuLS1sdmUtNmxhZC54
bi0tbjhqNmRzNTNsd3drcnFodjI4YS5ub3Qtd2ViLXBsYXRmb3JtLnRlc3SCOnhu
LS1uOGo2ZHM1M2x3d2tycWh2MjhhLnhuLS1sdmUtNmxhZC5ub3Qtd2ViLXBsYXRm
b3JtLnRlc3SCQXhuLS1uOGo2ZHM1M2x3d2tycWh2MjhhLnhuLS1uOGo2ZHM1M2x3
d2tycWh2MjhhLndlYi1wbGF0Zm9ybS50ZXN0gkV4bi0tbjhqNmRzNTNsd3drcnFo
djI4YS54bi0tbjhqNmRzNTNsd3drcnFodjI4YS5ub3Qtd2ViLXBsYXRmb3JtLnRl
c3QwDQYJKoZIhvcNAQELBQADggEBAEKhOi0GbPNDn6bp8C1LD61D8UR/M/Xmegnj
dW3CkSNc3bxG7TGDQO0U0RI3euPEatDxbUITk6Zj9gCkNhuoyjRKOewbSEAiO2OC
bHypDmmv9nsN7//L/dvBcDapGyrY6/TrdkkPGj4LIioQlBagM5jzt4lQwZgDrmu1
UMIsYeGDt3/8fYL9kw5g7xidlMUnuKBH3bKr8C1cBTW0gBSMw3Hj1aCgd/vrScT0
6cqv67HCV9+jvvlOy5oKZKcSiHgFElkEGFizCJda0JzHS25cPTP9FtF2szEOC6jU
Lp3qw4YgKn4aztqfod+PyVkhVLbVkYd2wAO2UmkrK30hf77h1Fw=
-----END CERTIFICATE-----
